; ModuleID = '/home/alexandroni/Dropbox/TCC-JOAO-PEDRO/Vivado/final/examples/display/translator/vivado_hls/translator/solution1/.autopilot/db/a.o.2.bc'
target datalayout = "e-p:64:64:64-i1:8:8-i8:8:8-i16:16:16-i32:32:32-i64:64:64-f32:32:32-f64:64:64-v64:64:64-v128:128:128-a0:0:64-s0:64:64-f80:128:128-n8:16:32:64-S128"
target triple = "x86_64-unknown-linux-gnu"

@"translator::__ssdm_thread_M_transform" = external global i1 ; [#uses=1 type=i1*]
@ssdm_ins_translator_0_0.whichDisp.m_if.Val.V = global i4 0 ; [#uses=0 type=i4*]
@ssdm_ins_translator_0_0.transformed = global i32 0 ; [#uses=0 type=i32*]
@ssdm_ins_translator_0_0.toDisp.m_if.Val.V = global i7 0 ; [#uses=0 type=i7*]
@ssdm_ins_translator_0_0.number.m_if.Val.V = global i10 0 ; [#uses=0 type=i10*]
@ssdm_ins_translator_0_0.i = global i32 0         ; [#uses=0 type=i32*]
@ssdm_ins_translator_0_0.disp = global i32 0      ; [#uses=0 type=i32*]
@ssdm_ins_translator_0_0.digits = global [4 x i32] zeroinitializer ; [#uses=0 type=[4 x i32]*]
@llvm.global_ctors.1 = appending global [1 x void ()*] [void ()* @_GLOBAL__I_a] ; [#uses=0 type=[1 x void ()*]*]
@llvm.global_ctors.0 = appending global [1 x i32] [i32 65535] ; [#uses=0 type=[1 x i32]*]
@.str8 = private unnamed_addr constant [10 x i8] c"SC_METHOD\00", align 1 ; [#uses=2 type=[10 x i8]*]
@.str7 = private unnamed_addr constant [10 x i8] c"transform\00", align 1 ; [#uses=4 type=[10 x i8]*]
@.str6 = private unnamed_addr constant [7 x i8] c"toDisp\00", align 1 ; [#uses=2 type=[7 x i8]*]
@.str5 = private unnamed_addr constant [13 x i8] c"\22sc_uint<7>\22\00", align 1 ; [#uses=2 type=[13 x i8]*]
@.str4 = private unnamed_addr constant [10 x i8] c"whichDisp\00", align 1 ; [#uses=3 type=[10 x i8]*]
@.str3 = private unnamed_addr constant [13 x i8] c"\22sc_uint<4>\22\00", align 1 ; [#uses=2 type=[13 x i8]*]
@.str2 = private unnamed_addr constant [7 x i8] c"number\00", align 1 ; [#uses=3 type=[7 x i8]*]
@.str1 = private unnamed_addr constant [14 x i8] c"\22sc_uint<10>\22\00", align 1 ; [#uses=2 type=[14 x i8]*]
@.str = private unnamed_addr constant [11 x i8] c"translator\00", align 1 ; [#uses=10 type=[11 x i8]*]

; [#uses=0]
define weak void @"translator::translator"(i10* %translator.number.m_if.Val.V, i4* %translator.whichDisp.m_if.Val.V, i7* %translator.toDisp.m_if.Val.V, i32* %translator.i, i32* %translator.disp, [4 x i32]* %translator.digits, i32* %translator.transformed) {
  call void (...)* @_ssdm_op_SpecBitsMap(i10* %translator.number.m_if.Val.V), !map !5727
  call void (...)* @_ssdm_op_SpecBitsMap(i4* %translator.whichDisp.m_if.Val.V), !map !5731
  call void (...)* @_ssdm_op_SpecBitsMap(i7* %translator.toDisp.m_if.Val.V), !map !5735
  call void (...)* @_ssdm_op_SpecBitsMap(i32* %translator.i), !map !5739
  call void (...)* @_ssdm_op_SpecBitsMap(i32* %translator.disp), !map !5743
  call void (...)* @_ssdm_op_SpecBitsMap([4 x i32]* %translator.digits), !map !5747
  call void (...)* @_ssdm_op_SpecBitsMap(i32* %translator.transformed), !map !5751
  call void @llvm.dbg.value(metadata !{i10* %translator.number.m_if.Val.V}, i64 0, metadata !5755), !dbg !5760 ; [debug line = 12:3] [debug variable = translator.number.m_if.Val.V]
  call void @llvm.dbg.value(metadata !{i4* %translator.whichDisp.m_if.Val.V}, i64 0, metadata !5761), !dbg !5760 ; [debug line = 12:3] [debug variable = translator.whichDisp.m_if.Val.V]
  call void @llvm.dbg.value(metadata !{i7* %translator.toDisp.m_if.Val.V}, i64 0, metadata !5763), !dbg !5760 ; [debug line = 12:3] [debug variable = translator.toDisp.m_if.Val.V]
  call void @llvm.dbg.value(metadata !{i32* %translator.i}, i64 0, metadata !5765), !dbg !5760 ; [debug line = 12:3] [debug variable = translator.i]
  call void @llvm.dbg.value(metadata !{i32* %translator.disp}, i64 0, metadata !5767), !dbg !5760 ; [debug line = 12:3] [debug variable = translator.disp]
  call void @llvm.dbg.value(metadata !{[4 x i32]* %translator.digits}, i64 0, metadata !5769), !dbg !5760 ; [debug line = 12:3] [debug variable = translator.digits]
  call void @llvm.dbg.value(metadata !{i32* %translator.transformed}, i64 0, metadata !5771), !dbg !5760 ; [debug line = 12:3] [debug variable = translator.transformed]
  call void (...)* @_ssdm_op_SpecTopModule([11 x i8]* @.str, [11 x i8]* @.str) nounwind, !dbg !5773 ; [debug line = 14:5]
  %"translator::__ssdm_thread_M_transform.load" = load i1* @"translator::__ssdm_thread_M_transform", align 1, !dbg !5775 ; [#uses=1 type=i1] [debug line = 15:5]
  br i1 %"translator::__ssdm_thread_M_transform.load", label %1, label %._crit_edge, !dbg !5775 ; [debug line = 15:5]

; <label>:1                                       ; preds = %0
  call void @"translator::transform"(i10* %translator.number.m_if.Val.V, i4* %translator.whichDisp.m_if.Val.V, i7* %translator.toDisp.m_if.Val.V, i32* %translator.i, i32* %translator.disp, [4 x i32]* %translator.digits, i32* %translator.transformed), !dbg !5776 ; [debug line = 15:36]
  br label %._crit_edge, !dbg !5776               ; [debug line = 15:36]

._crit_edge:                                      ; preds = %1, %0
  call void (...)* @_ssdm_op_SpecProcessDecl([11 x i8]* @.str, i32 0, [10 x i8]* @.str7) nounwind, !dbg !5777 ; [debug line = 15:49]
  call void (...)* @_ssdm_op_SpecSensitive([10 x i8]* @.str7, [7 x i8]* @.str2, i10* %translator.number.m_if.Val.V, i32 0) nounwind, !dbg !5778 ; [debug line = 16:5]
  call void (...)* @_ssdm_op_SpecSensitive([10 x i8]* @.str7, [10 x i8]* @.str4, i4* %translator.whichDisp.m_if.Val.V, i32 0) nounwind, !dbg !5779 ; [debug line = 17:5]
  call void (...)* @_ssdm_op_SpecPort([11 x i8]* @.str, i32 0, [14 x i8]* @.str1, [7 x i8]* @.str2, i32 0, i32 0, i10* %translator.number.m_if.Val.V) nounwind, !dbg !5780 ; [debug line = 18:5]
  call void (...)* @_ssdm_op_SpecPort([11 x i8]* @.str, i32 0, [13 x i8]* @.str3, [10 x i8]* @.str4, i32 0, i32 0, i4* %translator.whichDisp.m_if.Val.V) nounwind, !dbg !5781 ; [debug line = 19:5]
  call void (...)* @_ssdm_op_SpecPort([11 x i8]* @.str, i32 1, [13 x i8]* @.str5, [7 x i8]* @.str6, i32 0, i32 0, i7* %translator.toDisp.m_if.Val.V) nounwind, !dbg !5782 ; [debug line = 20:5]
  ret void, !dbg !5783                            ; [debug line = 20:1]
}

; [#uses=1]
define void @"translator::transform"(i10* %translator.number.m_if.Val.V, i4* %translator.whichDisp.m_if.Val.V, i7* %translator.toDisp.m_if.Val.V, i32* %translator.i, i32* %translator.disp, [4 x i32]* %translator.digits, i32* %translator.transformed) {
  call void (...)* @_ssdm_op_SpecBitsMap(i10* %translator.number.m_if.Val.V), !map !5727
  call void (...)* @_ssdm_op_SpecBitsMap(i4* %translator.whichDisp.m_if.Val.V), !map !5731
  call void (...)* @_ssdm_op_SpecBitsMap(i7* %translator.toDisp.m_if.Val.V), !map !5735
  call void (...)* @_ssdm_op_SpecBitsMap(i32* %translator.i), !map !5739
  call void (...)* @_ssdm_op_SpecBitsMap(i32* %translator.disp), !map !5743
  call void (...)* @_ssdm_op_SpecBitsMap([4 x i32]* %translator.digits), !map !5747
  call void (...)* @_ssdm_op_SpecBitsMap(i32* %translator.transformed), !map !5751
  call void @llvm.dbg.value(metadata !{i10* %translator.number.m_if.Val.V}, i64 0, metadata !5784), !dbg !5787 ; [debug line = 43:18] [debug variable = translator.number.m_if.Val.V]
  call void @llvm.dbg.value(metadata !{i4* %translator.whichDisp.m_if.Val.V}, i64 0, metadata !5788), !dbg !5787 ; [debug line = 43:18] [debug variable = translator.whichDisp.m_if.Val.V]
  call void @llvm.dbg.value(metadata !{i7* %translator.toDisp.m_if.Val.V}, i64 0, metadata !5789), !dbg !5787 ; [debug line = 43:18] [debug variable = translator.toDisp.m_if.Val.V]
  call void @llvm.dbg.value(metadata !{i32* %translator.i}, i64 0, metadata !5790), !dbg !5787 ; [debug line = 43:18] [debug variable = translator.i]
  call void @llvm.dbg.value(metadata !{i32* %translator.disp}, i64 0, metadata !5791), !dbg !5787 ; [debug line = 43:18] [debug variable = translator.disp]
  call void @llvm.dbg.value(metadata !{[4 x i32]* %translator.digits}, i64 0, metadata !5792), !dbg !5787 ; [debug line = 43:18] [debug variable = translator.digits]
  call void @llvm.dbg.value(metadata !{i32* %translator.transformed}, i64 0, metadata !5793), !dbg !5787 ; [debug line = 43:18] [debug variable = translator.transformed]
  call void (...)* @_ssdm_op_SpecPort([11 x i8]* @.str, i32 0, [14 x i8]* @.str1, [7 x i8]* @.str2, i32 0, i32 0, i10* %translator.number.m_if.Val.V) nounwind, !dbg !5794 ; [debug line = 44:4]
  call void (...)* @_ssdm_op_SpecPort([11 x i8]* @.str, i32 0, [13 x i8]* @.str3, [10 x i8]* @.str4, i32 0, i32 0, i4* %translator.whichDisp.m_if.Val.V) nounwind, !dbg !5796 ; [debug line = 45:3]
  call void (...)* @_ssdm_op_SpecPort([11 x i8]* @.str, i32 1, [13 x i8]* @.str5, [7 x i8]* @.str6, i32 0, i32 0, i7* %translator.toDisp.m_if.Val.V) nounwind, !dbg !5797 ; [debug line = 46:3]
  call void (...)* @_ssdm_op_SpecProcessDef([11 x i8]* @.str, i32 0, [10 x i8]* @.str7) nounwind, !dbg !5798 ; [debug line = 47:3]
  %tmp.1 = call i32 (...)* @_ssdm_op_SpecRegionBegin([10 x i8]* @.str8), !dbg !5799 ; [#uses=1 type=i32] [debug line = 47:157]
  call void (...)* @_ssdm_op_SpecProtocol(i32 1) nounwind, !dbg !5800 ; [debug line = 47:230]
  %val.V = load volatile i10* %translator.number.m_if.Val.V, align 2, !dbg !5801 ; [#uses=4 type=i10] [debug line = 374:13@112:21@180:66@338:73@46:9]
  call void @llvm.dbg.value(metadata !{i10 %val.V}, i64 0, metadata !5820), !dbg !5801 ; [debug line = 374:13@112:21@180:66@338:73@46:9] [debug variable = val.V]
  %tmp = urem i10 %val.V, 10, !dbg !5822          ; [#uses=2 type=i10] [debug line = 48:1]
  %tmp.cast = trunc i10 %tmp to i5, !dbg !5822    ; [#uses=1 type=i5] [debug line = 48:1]
  %valor.assign = zext i10 %tmp to i32, !dbg !5822 ; [#uses=1 type=i32] [debug line = 48:1]
  %translator.digits.addr = getelementptr [4 x i32]* %translator.digits, i64 0, i64 0, !dbg !5822 ; [#uses=1 type=i32*] [debug line = 48:1]
  store i32 %valor.assign, i32* %translator.digits.addr, align 4, !dbg !5822 ; [debug line = 48:1]
  %div = udiv i10 %val.V, 10, !dbg !5823          ; [#uses=1 type=i10] [debug line = 49:1]
  %div.cast = trunc i10 %div to i7, !dbg !5823    ; [#uses=1 type=i7] [debug line = 49:1]
  %tmp.2 = urem i7 %div.cast, 10, !dbg !5823      ; [#uses=2 type=i7] [debug line = 49:1]
  %tmp.2.cast2 = trunc i7 %tmp.2 to i5, !dbg !5823 ; [#uses=1 type=i5] [debug line = 49:1]
  %valor.assign.1 = zext i7 %tmp.2 to i32, !dbg !5823 ; [#uses=1 type=i32] [debug line = 49:1]
  %translator.digits.addr.1 = getelementptr [4 x i32]* %translator.digits, i64 0, i64 1, !dbg !5823 ; [#uses=1 type=i32*] [debug line = 49:1]
  store i32 %valor.assign.1, i32* %translator.digits.addr.1, align 4, !dbg !5823 ; [debug line = 49:1]
  %div1 = udiv i10 %val.V, 100, !dbg !5824        ; [#uses=1 type=i10] [debug line = 50:1]
  %div1.cast = trunc i10 %div1 to i4, !dbg !5824  ; [#uses=1 type=i4] [debug line = 50:1]
  %tmp.4 = urem i4 %div1.cast, -6, !dbg !5824     ; [#uses=2 type=i4] [debug line = 50:1]
  %valor.assign.2 = zext i4 %tmp.4 to i32, !dbg !5824 ; [#uses=1 type=i32] [debug line = 50:1]
  %translator.digits.addr.2 = getelementptr [4 x i32]* %translator.digits, i64 0, i64 2, !dbg !5824 ; [#uses=1 type=i32*] [debug line = 50:1]
  store i32 %valor.assign.2, i32* %translator.digits.addr.2, align 4, !dbg !5824 ; [debug line = 50:1]
  %tmp.6 = icmp ult i10 %val.V, -24, !dbg !5825   ; [#uses=2 type=i1] [debug line = 51:1]
  %valor.assign.3 = xor i1 %tmp.6, true, !dbg !5825 ; [#uses=1 type=i1] [debug line = 51:1]
  %valor.assign.3.cast = zext i1 %valor.assign.3 to i32, !dbg !5825 ; [#uses=1 type=i32] [debug line = 51:1]
  %translator.digits.addr.3 = getelementptr [4 x i32]* %translator.digits, i64 0, i64 3, !dbg !5825 ; [#uses=1 type=i32*] [debug line = 51:1]
  store i32 %valor.assign.3.cast, i32* %translator.digits.addr.3, align 4, !dbg !5825 ; [debug line = 51:1]
  %val.V.1 = load volatile i4* %translator.whichDisp.m_if.Val.V, align 1, !dbg !5826 ; [#uses=2 type=i4] [debug line = 374:13@112:21@180:66@338:73@53:8]
  call void @llvm.dbg.value(metadata !{i4 %val.V.1}, i64 0, metadata !5844), !dbg !5826 ; [debug line = 374:13@112:21@180:66@338:73@53:8] [debug variable = val.V]
  %tmp.8 = zext i4 %val.V.1 to i32, !dbg !5843    ; [#uses=1 type=i32] [debug line = 53:8]
  store i32 %tmp.8, i32* %translator.disp, align 4, !dbg !5843 ; [debug line = 53:8]
  switch i4 %val.V.1, label %._crit_edge [
    i4 7, label %1
    i4 -5, label %12
    i4 -3, label %23
    i4 -2, label %translate.exit52
  ], !dbg !5846                                   ; [debug line = 55:1]

; <label>:1                                       ; preds = %0
  call void @llvm.dbg.value(metadata !{i32 %valor.assign}, i64 0, metadata !5847), !dbg !5853 ; [debug line = 3:19@58:18] [debug variable = valor]
  switch i5 %tmp.cast, label %11 [
    i5 0, label %translate.exit
    i5 1, label %2
    i5 2, label %3
    i5 3, label %4
    i5 4, label %5
    i5 5, label %6
    i5 6, label %7
    i5 7, label %8
    i5 8, label %9
    i5 9, label %10
  ], !dbg !5854                                   ; [debug line = 5:2@58:18]

; <label>:2                                       ; preds = %1
  br label %translate.exit, !dbg !5856            ; [debug line = 10:4@58:18]

; <label>:3                                       ; preds = %1
  br label %translate.exit, !dbg !5858            ; [debug line = 13:4@58:18]

; <label>:4                                       ; preds = %1
  br label %translate.exit, !dbg !5859            ; [debug line = 16:4@58:18]

; <label>:5                                       ; preds = %1
  br label %translate.exit, !dbg !5860            ; [debug line = 19:4@58:18]

; <label>:6                                       ; preds = %1
  br label %translate.exit, !dbg !5861            ; [debug line = 22:4@58:18]

; <label>:7                                       ; preds = %1
  br label %translate.exit, !dbg !5862            ; [debug line = 25:4@58:18]

; <label>:8                                       ; preds = %1
  br label %translate.exit, !dbg !5863            ; [debug line = 28:4@58:18]

; <label>:9                                       ; preds = %1
  br label %translate.exit, !dbg !5864            ; [debug line = 31:4@58:18]

; <label>:10                                      ; preds = %1
  br label %translate.exit, !dbg !5865            ; [debug line = 34:4@58:18]

; <label>:11                                      ; preds = %1
  br label %translate.exit, !dbg !5866            ; [debug line = 37:4@58:18]

translate.exit:                                   ; preds = %11, %10, %9, %8, %7, %6, %5, %4, %3, %2, %1
  %.0.i = phi i7 [ -1, %11 ], [ 4, %10 ], [ 0, %9 ], [ 15, %8 ], [ 32, %7 ], [ 36, %6 ], [ -52, %5 ], [ 6, %4 ], [ 18, %3 ], [ -49, %2 ], [ 1, %1 ] ; [#uses=1 type=i7]
  %.0.i.cast = zext i7 %.0.i to i32, !dbg !5851   ; [#uses=1 type=i32] [debug line = 58:18]
  store i32 %.0.i.cast, i32* %translator.transformed, align 4, !dbg !5851 ; [debug line = 58:18]
  br label %._crit_edge, !dbg !5867               ; [debug line = 59:4]

; <label>:12                                      ; preds = %0
  call void @llvm.dbg.value(metadata !{i32 %valor.assign.1}, i64 0, metadata !5868), !dbg !5870 ; [debug line = 3:19@61:18] [debug variable = valor]
  switch i5 %tmp.2.cast2, label %22 [
    i5 0, label %translate.exit48
    i5 1, label %13
    i5 2, label %14
    i5 3, label %15
    i5 4, label %16
    i5 5, label %17
    i5 6, label %18
    i5 7, label %19
    i5 8, label %20
    i5 9, label %21
  ], !dbg !5871                                   ; [debug line = 5:2@61:18]

; <label>:13                                      ; preds = %12
  br label %translate.exit48, !dbg !5872          ; [debug line = 10:4@61:18]

; <label>:14                                      ; preds = %12
  br label %translate.exit48, !dbg !5873          ; [debug line = 13:4@61:18]

; <label>:15                                      ; preds = %12
  br label %translate.exit48, !dbg !5874          ; [debug line = 16:4@61:18]

; <label>:16                                      ; preds = %12
  br label %translate.exit48, !dbg !5875          ; [debug line = 19:4@61:18]

; <label>:17                                      ; preds = %12
  br label %translate.exit48, !dbg !5876          ; [debug line = 22:4@61:18]

; <label>:18                                      ; preds = %12
  br label %translate.exit48, !dbg !5877          ; [debug line = 25:4@61:18]

; <label>:19                                      ; preds = %12
  br label %translate.exit48, !dbg !5878          ; [debug line = 28:4@61:18]

; <label>:20                                      ; preds = %12
  br label %translate.exit48, !dbg !5879          ; [debug line = 31:4@61:18]

; <label>:21                                      ; preds = %12
  br label %translate.exit48, !dbg !5880          ; [debug line = 34:4@61:18]

; <label>:22                                      ; preds = %12
  br label %translate.exit48, !dbg !5881          ; [debug line = 37:4@61:18]

translate.exit48:                                 ; preds = %22, %21, %20, %19, %18, %17, %16, %15, %14, %13, %12
  %.0.i1 = phi i7 [ -1, %22 ], [ 4, %21 ], [ 0, %20 ], [ 15, %19 ], [ 32, %18 ], [ 36, %17 ], [ -52, %16 ], [ 6, %15 ], [ 18, %14 ], [ -49, %13 ], [ 1, %12 ] ; [#uses=1 type=i7]
  %.0.i1.cast = zext i7 %.0.i1 to i32, !dbg !5869 ; [#uses=1 type=i32] [debug line = 61:18]
  store i32 %.0.i1.cast, i32* %translator.transformed, align 4, !dbg !5869 ; [debug line = 61:18]
  br label %._crit_edge, !dbg !5882               ; [debug line = 62:4]

; <label>:23                                      ; preds = %0
  call void @llvm.dbg.value(metadata !{i32 %valor.assign.2}, i64 0, metadata !5883), !dbg !5885 ; [debug line = 3:19@64:18] [debug variable = valor]
  switch i4 %tmp.4, label %33 [
    i4 0, label %translate.exit50
    i4 1, label %24
    i4 2, label %25
    i4 3, label %26
    i4 4, label %27
    i4 5, label %28
    i4 6, label %29
    i4 7, label %30
    i4 -8, label %31
    i4 -7, label %32
  ], !dbg !5886                                   ; [debug line = 5:2@64:18]

; <label>:24                                      ; preds = %23
  br label %translate.exit50, !dbg !5887          ; [debug line = 10:4@64:18]

; <label>:25                                      ; preds = %23
  br label %translate.exit50, !dbg !5888          ; [debug line = 13:4@64:18]

; <label>:26                                      ; preds = %23
  br label %translate.exit50, !dbg !5889          ; [debug line = 16:4@64:18]

; <label>:27                                      ; preds = %23
  br label %translate.exit50, !dbg !5890          ; [debug line = 19:4@64:18]

; <label>:28                                      ; preds = %23
  br label %translate.exit50, !dbg !5891          ; [debug line = 22:4@64:18]

; <label>:29                                      ; preds = %23
  br label %translate.exit50, !dbg !5892          ; [debug line = 25:4@64:18]

; <label>:30                                      ; preds = %23
  br label %translate.exit50, !dbg !5893          ; [debug line = 28:4@64:18]

; <label>:31                                      ; preds = %23
  br label %translate.exit50, !dbg !5894          ; [debug line = 31:4@64:18]

; <label>:32                                      ; preds = %23
  br label %translate.exit50, !dbg !5895          ; [debug line = 34:4@64:18]

; <label>:33                                      ; preds = %23
  br label %translate.exit50, !dbg !5896          ; [debug line = 37:4@64:18]

translate.exit50:                                 ; preds = %33, %32, %31, %30, %29, %28, %27, %26, %25, %24, %23
  %.0.i2 = phi i7 [ -1, %33 ], [ 4, %32 ], [ 0, %31 ], [ 15, %30 ], [ 32, %29 ], [ 36, %28 ], [ -52, %27 ], [ 6, %26 ], [ 18, %25 ], [ -49, %24 ], [ 1, %23 ] ; [#uses=1 type=i7]
  %.0.i2.cast = zext i7 %.0.i2 to i32, !dbg !5884 ; [#uses=1 type=i32] [debug line = 64:18]
  store i32 %.0.i2.cast, i32* %translator.transformed, align 4, !dbg !5884 ; [debug line = 64:18]
  br label %._crit_edge, !dbg !5897               ; [debug line = 65:4]

translate.exit52:                                 ; preds = %0
  call void @llvm.dbg.value(metadata !{i1 %valor.assign.3}, i64 0, metadata !5898), !dbg !5900 ; [debug line = 3:19@67:18] [debug variable = valor]
  %..cast = select i1 %tmp.6, i32 1, i32 79, !dbg !5901 ; [#uses=1 type=i32] [debug line = 5:2@67:18]
  store i32 %..cast, i32* %translator.transformed, align 4, !dbg !5899 ; [debug line = 67:18]
  br label %._crit_edge, !dbg !5902               ; [debug line = 68:4]

._crit_edge:                                      ; preds = %translate.exit52, %translate.exit50, %translate.exit48, %translate.exit, %0
  %v.assign = load i32* %translator.transformed, align 4, !dbg !5903 ; [#uses=1 type=i32] [debug line = 71:1]
  call void @llvm.dbg.value(metadata !{i32 %v.assign}, i64 0, metadata !5904), !dbg !5906 ; [debug line = 343:59@71:1] [debug variable = v]
  call void @llvm.dbg.value(metadata !{i32 %v.assign}, i64 0, metadata !5907), !dbg !5909 ; [debug line = 343:59@343:82@71:1] [debug variable = v]
  call void @llvm.dbg.value(metadata !{i32 %v.assign}, i64 0, metadata !5911), !dbg !5913 ; [debug line = 1521:66@343:80@343:82@71:1] [debug variable = op]
  %v.V = trunc i32 %v.assign to i7, !dbg !5915    ; [#uses=1 type=i7] [debug line = 1521:72@343:80@343:82@71:1]
  call void @llvm.dbg.value(metadata !{i7 %v.V}, i64 0, metadata !5917), !dbg !5925 ; [debug line = 206:21@414:73@71:1] [debug variable = v.V]
  store volatile i7 %v.V, i7* %translator.toDisp.m_if.Val.V, align 1, !dbg !5929 ; [debug line = 365:13@108:100@207:13@414:73@71:1]
  %34 = call i32 (...)* @_ssdm_op_SpecRegionEnd([10 x i8]* @.str8, i32 %tmp.1), !dbg !5942 ; [#uses=0 type=i32] [debug line = 71:27]
  ret void, !dbg !5943                            ; [debug line = 71:66]
}

; [#uses=24]
declare void @llvm.dbg.value(metadata, i64, metadata) nounwind readnone

; [#uses=1]
declare void @_ssdm_op_SpecTopModule(...) nounwind

; [#uses=2]
declare void @_ssdm_op_SpecSensitive(...) nounwind

; [#uses=1]
declare i32 @_ssdm_op_SpecRegionEnd(...)

; [#uses=1]
declare i32 @_ssdm_op_SpecRegionBegin(...)

; [#uses=1]
declare void @_ssdm_op_SpecProtocol(...) nounwind

; [#uses=1]
declare void @_ssdm_op_SpecProcessDef(...) nounwind

; [#uses=1]
declare void @_ssdm_op_SpecProcessDecl(...) nounwind

; [#uses=6]
declare void @_ssdm_op_SpecPort(...) nounwind

; [#uses=14]
declare void @_ssdm_op_SpecBitsMap(...)

; [#uses=1]
declare void @_GLOBAL__I_a() nounwind section ".text.startup"

!opencl.kernels = !{!0, !7, !13, !13, !15, !7, !17, !19, !21, !27, !7, !7, !7, !29, !32, !7, !7, !7, !7, !7, !7, !7, !34, !36, !7, !7, !7, !7, !38, !38, !43, !43, !7, !7, !7, !7, !7, !7, !7, !7, !7, !7, !7, !7, !7, !7, !7, !7, !7, !7, !7, !7, !7, !7}
!hls.encrypted.func = !{}
!llvm.map.gv = !{!45, !52, !57, !62, !67, !72, !77, !82, !89}
!llvm.dbg.cu = !{!94}

!0 = metadata !{null, metadata !1, metadata !2, metadata !3, metadata !4, metadata !5, metadata !6}
!1 = metadata !{metadata !"kernel_arg_addr_space", i32 0}
!2 = metadata !{metadata !"kernel_arg_access_qual", metadata !"none"}
!3 = metadata !{metadata !"kernel_arg_type", metadata !"int"}
!4 = metadata !{metadata !"kernel_arg_type_qual", metadata !""}
!5 = metadata !{metadata !"kernel_arg_name", metadata !"valor"}
!6 = metadata !{metadata !"reqd_work_group_size", i32 1, i32 1, i32 1}
!7 = metadata !{null, metadata !8, metadata !9, metadata !10, metadata !11, metadata !12, metadata !6}
!8 = metadata !{metadata !"kernel_arg_addr_space"}
!9 = metadata !{metadata !"kernel_arg_access_qual"}
!10 = metadata !{metadata !"kernel_arg_type"}
!11 = metadata !{metadata !"kernel_arg_type_qual"}
!12 = metadata !{metadata !"kernel_arg_name"}
!13 = metadata !{null, metadata !1, metadata !2, metadata !3, metadata !4, metadata !14, metadata !6}
!14 = metadata !{metadata !"kernel_arg_name", metadata !"v"}
!15 = metadata !{null, metadata !1, metadata !2, metadata !3, metadata !4, metadata !16, metadata !6}
!16 = metadata !{metadata !"kernel_arg_name", metadata !"op"}
!17 = metadata !{null, metadata !1, metadata !2, metadata !18, metadata !4, metadata !14, metadata !6}
!18 = metadata !{metadata !"kernel_arg_type", metadata !"const struct _ap_sc_::sc_dt::sc_uint<7> &"}
!19 = metadata !{null, metadata !1, metadata !2, metadata !18, metadata !4, metadata !20, metadata !6}
!20 = metadata !{metadata !"kernel_arg_name", metadata !"v2"}
!21 = metadata !{null, metadata !22, metadata !23, metadata !24, metadata !25, metadata !26, metadata !6}
!22 = metadata !{metadata !"kernel_arg_addr_space", i32 0, i32 0}
!23 = metadata !{metadata !"kernel_arg_access_qual", metadata !"none", metadata !"none"}
!24 = metadata !{metadata !"kernel_arg_type", metadata !"volatile sc_uint<7> &", metadata !"const struct _ap_sc_::sc_dt::sc_uint<7> &"}
!25 = metadata !{metadata !"kernel_arg_type_qual", metadata !"", metadata !""}
!26 = metadata !{metadata !"kernel_arg_name", metadata !"P", metadata !"val"}
!27 = metadata !{null, metadata !1, metadata !2, metadata !18, metadata !4, metadata !28, metadata !6}
!28 = metadata !{metadata !"kernel_arg_name", metadata !"op2"}
!29 = metadata !{null, metadata !1, metadata !2, metadata !30, metadata !4, metadata !31, metadata !6}
!30 = metadata !{metadata !"kernel_arg_type", metadata !"volatile sc_uint<4> &"}
!31 = metadata !{metadata !"kernel_arg_name", metadata !"P"}
!32 = metadata !{null, metadata !1, metadata !2, metadata !33, metadata !4, metadata !28, metadata !6}
!33 = metadata !{metadata !"kernel_arg_type", metadata !"const volatile struct _ap_sc_::sc_dt::sc_uint<4> &"}
!34 = metadata !{null, metadata !1, metadata !2, metadata !35, metadata !4, metadata !31, metadata !6}
!35 = metadata !{metadata !"kernel_arg_type", metadata !"volatile sc_uint<10> &"}
!36 = metadata !{null, metadata !1, metadata !2, metadata !37, metadata !4, metadata !28, metadata !6}
!37 = metadata !{metadata !"kernel_arg_type", metadata !"const volatile struct _ap_sc_::sc_dt::sc_uint<10> &"}
!38 = metadata !{null, metadata !39, metadata !2, metadata !40, metadata !41, metadata !42, metadata !6}
!39 = metadata !{metadata !"kernel_arg_addr_space", i32 1}
!40 = metadata !{metadata !"kernel_arg_type", metadata !"char*"}
!41 = metadata !{metadata !"kernel_arg_type_qual", metadata !"const"}
!42 = metadata !{metadata !"kernel_arg_name", metadata !""}
!43 = metadata !{null, metadata !1, metadata !2, metadata !44, metadata !4, metadata !42, metadata !6}
!44 = metadata !{metadata !"kernel_arg_type", metadata !"::sc_core::sc_module_name"}
!45 = metadata !{metadata !46, i1* @"translator::__ssdm_thread_M_transform"}
!46 = metadata !{metadata !47}
!47 = metadata !{i32 0, i32 0, metadata !48}
!48 = metadata !{metadata !49}
!49 = metadata !{metadata !"translator::__ssdm_thread_M_transform", metadata !50, metadata !"bool", i32 0, i32 0}
!50 = metadata !{metadata !51}
!51 = metadata !{i32 0, i32 0, i32 1}
!52 = metadata !{metadata !53, i4* @ssdm_ins_translator_0_0.whichDisp.m_if.Val.V}
!53 = metadata !{metadata !54}
!54 = metadata !{i32 0, i32 3, metadata !55}
!55 = metadata !{metadata !56}
!56 = metadata !{metadata !"ssdm_ins_translator_0_0.whichDisp.m_if.Val.V", metadata !50, metadata !"uint4", i32 0, i32 3}
!57 = metadata !{metadata !58, i32* @ssdm_ins_translator_0_0.transformed}
!58 = metadata !{metadata !59}
!59 = metadata !{i32 0, i32 31, metadata !60}
!60 = metadata !{metadata !61}
!61 = metadata !{metadata !"ssdm_ins_translator_0_0.transformed", metadata !50, metadata !"int", i32 0, i32 31}
!62 = metadata !{metadata !63, i7* @ssdm_ins_translator_0_0.toDisp.m_if.Val.V}
!63 = metadata !{metadata !64}
!64 = metadata !{i32 0, i32 6, metadata !65}
!65 = metadata !{metadata !66}
!66 = metadata !{metadata !"ssdm_ins_translator_0_0.toDisp.m_if.Val.V", metadata !50, metadata !"uint7", i32 0, i32 6}
!67 = metadata !{metadata !68, i10* @ssdm_ins_translator_0_0.number.m_if.Val.V}
!68 = metadata !{metadata !69}
!69 = metadata !{i32 0, i32 9, metadata !70}
!70 = metadata !{metadata !71}
!71 = metadata !{metadata !"ssdm_ins_translator_0_0.number.m_if.Val.V", metadata !50, metadata !"uint10", i32 0, i32 9}
!72 = metadata !{metadata !73, i32* @ssdm_ins_translator_0_0.i}
!73 = metadata !{metadata !74}
!74 = metadata !{i32 0, i32 31, metadata !75}
!75 = metadata !{metadata !76}
!76 = metadata !{metadata !"ssdm_ins_translator_0_0.i", metadata !50, metadata !"int", i32 0, i32 31}
!77 = metadata !{metadata !78, i32* @ssdm_ins_translator_0_0.disp}
!78 = metadata !{metadata !79}
!79 = metadata !{i32 0, i32 31, metadata !80}
!80 = metadata !{metadata !81}
!81 = metadata !{metadata !"ssdm_ins_translator_0_0.disp", metadata !50, metadata !"int", i32 0, i32 31}
!82 = metadata !{metadata !83, [4 x i32]* @ssdm_ins_translator_0_0.digits}
!83 = metadata !{metadata !84}
!84 = metadata !{i32 0, i32 31, metadata !85}
!85 = metadata !{metadata !86}
!86 = metadata !{metadata !"ssdm_ins_translator_0_0.digits", metadata !87, metadata !"int", i32 0, i32 31}
!87 = metadata !{metadata !88}
!88 = metadata !{i32 0, i32 3, i32 1}
!89 = metadata !{metadata !90, [1 x i32]* @llvm.global_ctors.0}
!90 = metadata !{metadata !91}
!91 = metadata !{i32 0, i32 31, metadata !92}
!92 = metadata !{metadata !93}
!93 = metadata !{metadata !"llvm.global_ctors.0", metadata !50, metadata !"", i32 0, i32 31}
!94 = metadata !{i32 786449, i32 0, i32 4, metadata !"/home/alexandroni/Dropbox/TCC-JOAO-PEDRO/Vivado/final/examples/display/translator/vivado_hls/translator/solution1/.autopilot/db/translator.pragma.2.cpp", metadata !"/home/alexandroni/Dropbox/TCC-JOAO-PEDRO/Vivado/final/examples/display/translator/vivado_hls", metadata !"clang version 3.1 ", i1 true, i1 false, metadata !"", i32 0, null, null, null, metadata !95} ; [ DW_TAG_compile_unit ]
!95 = metadata !{metadata !96}
!96 = metadata !{metadata !97, metadata !3057, metadata !3060, metadata !3079, metadata !3082, metadata !3083, metadata !3098, metadata !3113, metadata !3116, metadata !3979, metadata !3980, metadata !3981, metadata !3982, metadata !3983, metadata !3984, metadata !3985, metadata !3986, metadata !3987, metadata !3988, metadata !3989, metadata !3990, metadata !3991, metadata !3992, metadata !3993, metadata !3994, metadata !3995, metadata !3996, metadata !3998, metadata !3999, metadata !4000, metadata !4001, metadata !4013, metadata !4014, metadata !4015, metadata !4016, metadata !4017, metadata !4018, metadata !4027, metadata !4028, metadata !4029, metadata !4031, metadata !4032, metadata !4033, metadata !4034, metadata !4035, metadata !4036, metadata !4037, metadata !4038, metadata !4040, metadata !4051, metadata !4052, metadata !4053, metadata !4054, metadata !4055, metadata !4056, metadata !4057, metadata !4058, metadata !4059, metadata !4060, metadata !4061, metadata !4063, metadata !4064, metadata !4065, metadata !4066, metadata !4068, metadata !4069, metadata !4070, metadata !4072, metadata !4073, metadata !4074, metadata !4079, metadata !4082, metadata !4083, metadata !4084, metadata !4085, metadata !4086, metadata !4088, metadata !4094, metadata !4095, metadata !4096, metadata !4097, metadata !4098, metadata !4099, metadata !4100, metadata !4101, metadata !4102, metadata !4103, metadata !4104, metadata !4190, metadata !4191, metadata !4324, metadata !4331, metadata !4332, metadata !4333, metadata !4334, metadata !4335, metadata !5016, metadata !5018, metadata !5019, metadata !5020, metadata !5693, metadata !5695, metadata !5696, metadata !5697, metadata !5700, metadata !5701, metadata !5702, metadata !5704, metadata !5705, metadata !5707}
!97 = metadata !{i32 790546, i32 0, null, metadata !"ssdm_ins_translator_0_0.i", metadata !"ssdm_ins_translator_0_0.i", metadata !"ssdm_ins_translator_0_0.i", metadata !98, i32 75, metadata !99, i32 0, i32 1, i32* @ssdm_ins_translator_0_0.i} ; [ DW_TAG_variable_field ]
!98 = metadata !{i32 786473, metadata !"translator.cpp", metadata !"/home/alexandroni/Dropbox/TCC-JOAO-PEDRO/Vivado/final/examples/display/translator/vivado_hls", null} ; [ DW_TAG_file_type ]
!99 = metadata !{i32 786438, null, metadata !"translator", metadata !100, i32 3, i64 32, i64 32, i32 0, i32 0, null, metadata !101, i32 0, null, null} ; [ DW_TAG_class_field_type ]
!100 = metadata !{i32 786473, metadata !"./translator.h", metadata !"/home/alexandroni/Dropbox/TCC-JOAO-PEDRO/Vivado/final/examples/display/translator/vivado_hls", null} ; [ DW_TAG_file_type ]
!101 = metadata !{metadata !102}
!102 = metadata !{i32 786445, metadata !103, metadata !"i", metadata !100, i32 8, i64 32, i64 32, i64 32, i32 0, metadata !156} ; [ DW_TAG_member ]
!103 = metadata !{i32 786434, null, metadata !"translator", metadata !100, i32 3, i64 256, i64 32, i32 0, i32 0, null, metadata !104, i32 0, null, null} ; [ DW_TAG_class_type ]
!104 = metadata !{metadata !105, metadata !1383, metadata !2053, metadata !102, metadata !3033, metadata !3034, metadata !3038, metadata !3039, metadata !3043}
!105 = metadata !{i32 786445, metadata !103, metadata !"number", metadata !100, i32 5, i64 16, i64 16, i64 0, i32 0, metadata !106} ; [ DW_TAG_member ]
!106 = metadata !{i32 786434, metadata !107, metadata !"sc_in<_ap_sc_::sc_dt::sc_uint<10> >", metadata !109, i32 329, i64 16, i64 16, i32 0, i32 0, null, metadata !110, i32 0, null, metadata !1328} ; [ DW_TAG_class_type ]
!107 = metadata !{i32 786489, metadata !108, metadata !"sc_core", metadata !109, i32 163} ; [ DW_TAG_namespace ]
!108 = metadata !{i32 786489, null, metadata !"_ap_sc_", metadata !109, i32 160} ; [ DW_TAG_namespace ]
!109 = metadata !{i32 786473, metadata !"/opt/Xilinx/Vivado/2017.3/common/technology/autopilot/ap_sysc/ap_sc_core.h", metadata !"/home/alexandroni/Dropbox/TCC-JOAO-PEDRO/Vivado/final/examples/display/translator/vivado_hls", null} ; [ DW_TAG_file_type ]
!110 = metadata !{metadata !111, metadata !1359, metadata !1363, metadata !1366, metadata !1370, metadata !1376, metadata !1380}
!111 = metadata !{i32 786460, metadata !106, null, metadata !109, i32 0, i64 0, i64 0, i64 0, i32 0, metadata !112} ; [ DW_TAG_inheritance ]
!112 = metadata !{i32 786434, metadata !107, metadata !"sc_port_b<_ap_sc_::sc_core::sc_signal_in_if<_ap_sc_::sc_dt::sc_uint<10> > >", metadata !109, i32 268, i64 16, i64 16, i32 0, i32 0, null, metadata !113, i32 0, null, metadata !1357} ; [ DW_TAG_class_type ]
!113 = metadata !{metadata !114, metadata !123, metadata !1330, metadata !1334, metadata !1337, metadata !1341, metadata !1342, metadata !1347, metadata !1348, metadata !1352, metadata !1353}
!114 = metadata !{i32 786460, metadata !112, null, metadata !109, i32 0, i64 0, i64 0, i64 0, i32 0, metadata !115} ; [ DW_TAG_inheritance ]
!115 = metadata !{i32 786434, metadata !107, metadata !"sc_port_base", metadata !109, i32 265, i64 8, i64 8, i32 0, i32 0, null, metadata !116, i32 0, null, null} ; [ DW_TAG_class_type ]
!116 = metadata !{metadata !117}
!117 = metadata !{i32 786478, i32 0, metadata !115, metadata !"sc_port_base", metadata !"sc_port_base", metadata !"", metadata !109, i32 265, metadata !118, i1 false, i1 false, i32 0, i32 0, null, i32 256, i1 false, null, null, i32 0, metadata !121, i32 265} ; [ DW_TAG_subprogram ]
!118 = metadata !{i32 786453, i32 0, metadata !"", i32 0, i32 0, i64 0, i64 0, i64 0, i32 0, null, metadata !119, i32 0, i32 0} ; [ DW_TAG_subroutine_type ]
!119 = metadata !{null, metadata !120}
!120 = metadata !{i32 786447, i32 0, metadata !"", i32 0, i32 0, i64 64, i64 64, i64 0, i32 64, metadata !115} ; [ DW_TAG_pointer_type ]
!121 = metadata !{metadata !122}
!122 = metadata !{i32 786468}                     ; [ DW_TAG_base_type ]
!123 = metadata !{i32 786445, metadata !112, metadata !"m_if", metadata !109, i32 270, i64 16, i64 16, i64 0, i32 0, metadata !124} ; [ DW_TAG_member ]
!124 = metadata !{i32 786434, metadata !107, metadata !"sc_signal_in_if<_ap_sc_::sc_dt::sc_uint<10> >", metadata !109, i32 172, i64 16, i64 16, i32 0, i32 0, null, metadata !125, i32 0, null, metadata !1328} ; [ DW_TAG_class_type ]
!125 = metadata !{metadata !126, metadata !133, metadata !1310, metadata !1314, metadata !1317, metadata !1322, metadata !1325}
!126 = metadata !{i32 786460, metadata !124, null, metadata !109, i32 0, i64 0, i64 0, i64 0, i32 0, metadata !127} ; [ DW_TAG_inheritance ]
!127 = metadata !{i32 786434, metadata !107, metadata !"sc_interface", metadata !109, i32 165, i64 8, i64 8, i32 0, i32 0, null, metadata !128, i32 0, null, null} ; [ DW_TAG_class_type ]
!128 = metadata !{metadata !129}
!129 = metadata !{i32 786478, i32 0, metadata !127, metadata !"sc_interface", metadata !"sc_interface", metadata !"", metadata !109, i32 165, metadata !130, i1 false, i1 false, i32 0, i32 0, null, i32 256, i1 false, null, null, i32 0, metadata !121, i32 165} ; [ DW_TAG_subprogram ]
!130 = metadata !{i32 786453, i32 0, metadata !"", i32 0, i32 0, i64 0, i64 0, i64 0, i32 0, null, metadata !131, i32 0, i32 0} ; [ DW_TAG_subroutine_type ]
!131 = metadata !{null, metadata !132}
!132 = metadata !{i32 786447, i32 0, metadata !"", i32 0, i32 0, i64 64, i64 64, i64 0, i32 64, metadata !127} ; [ DW_TAG_pointer_type ]
!133 = metadata !{i32 786445, metadata !124, metadata !"Val", metadata !109, i32 174, i64 16, i64 16, i64 0, i32 0, metadata !134} ; [ DW_TAG_member ]
!134 = metadata !{i32 786485, null, metadata !"", null, i32 0, i64 0, i64 0, i64 0, i32 0, metadata !135} ; [ DW_TAG_volatile_type ]
!135 = metadata !{i32 786434, metadata !136, metadata !"sc_uint<10>", metadata !138, i32 269, i64 16, i64 16, i32 0, i32 0, null, metadata !139, i32 0, null, metadata !1308} ; [ DW_TAG_class_type ]
!136 = metadata !{i32 786489, metadata !137, metadata !"sc_dt", metadata !138, i32 67} ; [ DW_TAG_namespace ]
!137 = metadata !{i32 786489, null, metadata !"_ap_sc_", metadata !138, i32 64} ; [ DW_TAG_namespace ]
!138 = metadata !{i32 786473, metadata !"/opt/Xilinx/Vivado/2017.3/common/technology/autopilot/ap_sysc/ap_sc_dt.h", metadata !"/home/alexandroni/Dropbox/TCC-JOAO-PEDRO/Vivado/final/examples/display/translator/vivado_hls", null} ; [ DW_TAG_file_type ]
!139 = metadata !{metadata !140, metadata !1221, metadata !1225, metadata !1231, metadata !1236, metadata !1242, metadata !1246, metadata !1252, metadata !1255, metadata !1258, metadata !1261, metadata !1264, metadata !1267, metadata !1270, metadata !1273, metadata !1276, metadata !1279, metadata !1282, metadata !1285, metadata !1288, metadata !1291, metadata !1295, metadata !1300, metadata !1304, metadata !1307}
!140 = metadata !{i32 786460, metadata !135, null, metadata !138, i32 0, i64 0, i64 0, i64 0, i32 0, metadata !141} ; [ DW_TAG_inheritance ]
!141 = metadata !{i32 786434, null, metadata !"ap_int_base<10, false, true>", metadata !142, i32 1453, i64 16, i64 16, i32 0, i32 0, null, metadata !143, i32 0, null, metadata !1219} ; [ DW_TAG_class_type ]
!142 = metadata !{i32 786473, metadata !"/opt/Xilinx/Vivado/2017.3/common/technology/autopilot/ap_int_syn.h", metadata !"/home/alexandroni/Dropbox/TCC-JOAO-PEDRO/Vivado/final/examples/display/translator/vivado_hls", null} ; [ DW_TAG_file_type ]
!143 = metadata !{metadata !144, metadata !159, metadata !163, metadata !171, metadata !177, metadata !180, metadata !184, metadata !188, metadata !192, metadata !196, metadata !199, metadata !203, metadata !207, metadata !211, metadata !216, metadata !221, metadata !226, metadata !230, metadata !234, metadata !240, metadata !243, metadata !247, metadata !250, metadata !253, metadata !254, metadata !258, metadata !261, metadata !264, metadata !267, metadata !270, metadata !273, metadata !276, metadata !279, metadata !282, metadata !285, metadata !288, metadata !291, metadata !301, metadata !304, metadata !307, metadata !310, metadata !313, metadata !316, metadata !319, metadata !322, metadata !325, metadata !328, metadata !331, metadata !334, metadata !337, metadata !338, metadata !342, metadata !345, metadata !346, metadata !347, metadata !348, metadata !349, metadata !350, metadata !353, metadata !354, metadata !357, metadata !358, metadata !359, metadata !360, metadata !361, metadata !362, metadata !365, metadata !366, metadata !367, metadata !370, metadata !371, metadata !374, metadata !375, metadata !1180, metadata !1184, metadata !1185, metadata !1188, metadata !1189, metadata !1193, metadata !1194, metadata !1195, metadata !1196, metadata !1199, metadata !1200, metadata !1201, metadata !1202, metadata !1203, metadata !1204, metadata !1205, metadata !1206, metadata !1207, metadata !1208, metadata !1209, metadata !1210, metadata !1213, metadata !1216}
!144 = metadata !{i32 786460, metadata !141, null, metadata !142, i32 0, i64 0, i64 0, i64 0, i32 0, metadata !145} ; [ DW_TAG_inheritance ]
!145 = metadata !{i32 786434, null, metadata !"ssdm_int<10 + 1024 * 0, false>", metadata !146, i32 22, i64 16, i64 16, i32 0, i32 0, null, metadata !147, i32 0, null, metadata !154} ; [ DW_TAG_class_type ]
!146 = metadata !{i32 786473, metadata !"/opt/Xilinx/Vivado/2017.3/common/technology/autopilot/etc/autopilot_dt.def", metadata !"/home/alexandroni/Dropbox/TCC-JOAO-PEDRO/Vivado/final/examples/display/translator/vivado_hls", null} ; [ DW_TAG_file_type ]
!147 = metadata !{metadata !148, metadata !150}
!148 = metadata !{i32 786445, metadata !145, metadata !"V", metadata !146, i32 22, i64 10, i64 16, i64 0, i32 0, metadata !149} ; [ DW_TAG_member ]
!149 = metadata !{i32 786468, null, metadata !"uint10", null, i32 0, i64 10, i64 16, i64 0, i32 0, i32 7} ; [ DW_TAG_base_type ]
!150 = metadata !{i32 786478, i32 0, metadata !145, metadata !"ssdm_int", metadata !"ssdm_int", metadata !"", metadata !146, i32 22, metadata !151, i1 false, i1 false, i32 0, i32 0, null, i32 256, i1 false, null, null, i32 0, metadata !121, i32 22} ; [ DW_TAG_subprogram ]
!151 = metadata !{i32 786453, i32 0, metadata !"", i32 0, i32 0, i64 0, i64 0, i64 0, i32 0, null, metadata !152, i32 0, i32 0} ; [ DW_TAG_subroutine_type ]
!152 = metadata !{null, metadata !153}
!153 = metadata !{i32 786447, i32 0, metadata !"", i32 0, i32 0, i64 64, i64 64, i64 0, i32 64, metadata !145} ; [ DW_TAG_pointer_type ]
!154 = metadata !{metadata !155, metadata !157}
!155 = metadata !{i32 786480, null, metadata !"_AP_N", metadata !156, i64 10, null, i32 0, i32 0} ; [ DW_TAG_template_value_parameter ]
!156 = metadata !{i32 786468, null, metadata !"int", null, i32 0, i64 32, i64 32, i64 0, i32 0, i32 5} ; [ DW_TAG_base_type ]
!157 = metadata !{i32 786480, null, metadata !"_AP_S", metadata !158, i64 0, null, i32 0, i32 0} ; [ DW_TAG_template_value_parameter ]
!158 = metadata !{i32 786468, null, metadata !"bool", null, i32 0, i64 8, i64 8, i64 0, i32 0, i32 2} ; [ DW_TAG_base_type ]
!159 = metadata !{i32 786478, i32 0, metadata !141, metadata !"ap_int_base", metadata !"ap_int_base", metadata !"", metadata !142, i32 1494, metadata !160, i1 false, i1 false, i32 0, i32 0, null, i32 256, i1 false, null, null, i32 0, metadata !121, i32 1494} ; [ DW_TAG_subprogram ]
!160 = metadata !{i32 786453, i32 0, metadata !"", i32 0, i32 0, i64 0, i64 0, i64 0, i32 0, null, metadata !161, i32 0, i32 0} ; [ DW_TAG_subroutine_type ]
!161 = metadata !{null, metadata !162}
!162 = metadata !{i32 786447, i32 0, metadata !"", i32 0, i32 0, i64 64, i64 64, i64 0, i32 64, metadata !141} ; [ DW_TAG_pointer_type ]
!163 = metadata !{i32 786478, i32 0, metadata !141, metadata !"ap_int_base<10, false>", metadata !"ap_int_base<10, false>", metadata !"", metadata !142, i32 1506, metadata !164, i1 false, i1 false, i32 0, i32 0, null, i32 256, i1 false, null, metadata !168, i32 0, metadata !121, i32 1506} ; [ DW_TAG_subprogram ]
!164 = metadata !{i32 786453, i32 0, metadata !"", i32 0, i32 0, i64 0, i64 0, i64 0, i32 0, null, metadata !165, i32 0, i32 0} ; [ DW_TAG_subroutine_type ]
!165 = metadata !{null, metadata !162, metadata !166}
!166 = metadata !{i32 786448, null, null, null, i32 0, i64 0, i64 0, i64 0, i32 0, metadata !167} ; [ DW_TAG_reference_type ]
!167 = metadata !{i32 786470, null, metadata !"", null, i32 0, i64 0, i64 0, i64 0, i32 0, metadata !141} ; [ DW_TAG_const_type ]
!168 = metadata !{metadata !169, metadata !170}
!169 = metadata !{i32 786480, null, metadata !"_AP_W2", metadata !156, i64 10, null, i32 0, i32 0} ; [ DW_TAG_template_value_parameter ]
!170 = metadata !{i32 786480, null, metadata !"_AP_S2", metadata !158, i64 0, null, i32 0, i32 0} ; [ DW_TAG_template_value_parameter ]
!171 = metadata !{i32 786478, i32 0, metadata !141, metadata !"ap_int_base<10, false>", metadata !"ap_int_base<10, false>", metadata !"", metadata !142, i32 1509, metadata !172, i1 false, i1 false, i32 0, i32 0, null, i32 256, i1 false, null, metadata !168, i32 0, metadata !121, i32 1509} ; [ DW_TAG_subprogram ]
!172 = metadata !{i32 786453, i32 0, metadata !"", i32 0, i32 0, i64 0, i64 0, i64 0, i32 0, null, metadata !173, i32 0, i32 0} ; [ DW_TAG_subroutine_type ]
!173 = metadata !{null, metadata !162, metadata !174}
!174 = metadata !{i32 786448, null, null, null, i32 0, i64 0, i64 0, i64 0, i32 0, metadata !175} ; [ DW_TAG_reference_type ]
!175 = metadata !{i32 786470, null, metadata !"", null, i32 0, i64 0, i64 0, i64 0, i32 0, metadata !176} ; [ DW_TAG_const_type ]
!176 = metadata !{i32 786485, null, metadata !"", null, i32 0, i64 0, i64 0, i64 0, i32 0, metadata !141} ; [ DW_TAG_volatile_type ]
!177 = metadata !{i32 786478, i32 0, metadata !141, metadata !"ap_int_base", metadata !"ap_int_base", metadata !"", metadata !142, i32 1516, metadata !178, i1 false, i1 false, i32 0, i32 0, null, i32 384, i1 false, null, null, i32 0, metadata !121, i32 1516} ; [ DW_TAG_subprogram ]
!178 = metadata !{i32 786453, i32 0, metadata !"", i32 0, i32 0, i64 0, i64 0, i64 0, i32 0, null, metadata !179, i32 0, i32 0} ; [ DW_TAG_subroutine_type ]
!179 = metadata !{null, metadata !162, metadata !158}
!180 = metadata !{i32 786478, i32 0, metadata !141, metadata !"ap_int_base", metadata !"ap_int_base", metadata !"", metadata !142, i32 1517, metadata !181, i1 false, i1 false, i32 0, i32 0, null, i32 384, i1 false, null, null, i32 0, metadata !121, i32 1517} ; [ DW_TAG_subprogram ]
!181 = metadata !{i32 786453, i32 0, metadata !"", i32 0, i32 0, i64 0, i64 0, i64 0, i32 0, null, metadata !182, i32 0, i32 0} ; [ DW_TAG_subroutine_type ]
!182 = metadata !{null, metadata !162, metadata !183}
!183 = metadata !{i32 786468, null, metadata !"signed char", null, i32 0, i64 8, i64 8, i64 0, i32 0, i32 6} ; [ DW_TAG_base_type ]
!184 = metadata !{i32 786478, i32 0, metadata !141, metadata !"ap_int_base", metadata !"ap_int_base", metadata !"", metadata !142, i32 1518, metadata !185, i1 false, i1 false, i32 0, i32 0, null, i32 384, i1 false, null, null, i32 0, metadata !121, i32 1518} ; [ DW_TAG_subprogram ]
!185 = metadata !{i32 786453, i32 0, metadata !"", i32 0, i32 0, i64 0, i64 0, i64 0, i32 0, null, metadata !186, i32 0, i32 0} ; [ DW_TAG_subroutine_type ]
!186 = metadata !{null, metadata !162, metadata !187}
!187 = metadata !{i32 786468, null, metadata !"unsigned char", null, i32 0, i64 8, i64 8, i64 0, i32 0, i32 8} ; [ DW_TAG_base_type ]
!188 = metadata !{i32 786478, i32 0, metadata !141, metadata !"ap_int_base", metadata !"ap_int_base", metadata !"", metadata !142, i32 1519, metadata !189, i1 false, i1 false, i32 0, i32 0, null, i32 384, i1 false, null, null, i32 0, metadata !121, i32 1519} ; [ DW_TAG_subprogram ]
!189 = metadata !{i32 786453, i32 0, metadata !"", i32 0, i32 0, i64 0, i64 0, i64 0, i32 0, null, metadata !190, i32 0, i32 0} ; [ DW_TAG_subroutine_type ]
!190 = metadata !{null, metadata !162, metadata !191}
!191 = metadata !{i32 786468, null, metadata !"short", null, i32 0, i64 16, i64 16, i64 0, i32 0, i32 5} ; [ DW_TAG_base_type ]
!192 = metadata !{i32 786478, i32 0, metadata !141, metadata !"ap_int_base", metadata !"ap_int_base", metadata !"", metadata !142, i32 1520, metadata !193, i1 false, i1 false, i32 0, i32 0, null, i32 384, i1 false, null, null, i32 0, metadata !121, i32 1520} ; [ DW_TAG_subprogram ]
!193 = metadata !{i32 786453, i32 0, metadata !"", i32 0, i32 0, i64 0, i64 0, i64 0, i32 0, null, metadata !194, i32 0, i32 0} ; [ DW_TAG_subroutine_type ]
!194 = metadata !{null, metadata !162, metadata !195}
!195 = metadata !{i32 786468, null, metadata !"unsigned short", null, i32 0, i64 16, i64 16, i64 0, i32 0, i32 7} ; [ DW_TAG_base_type ]
!196 = metadata !{i32 786478, i32 0, metadata !141, metadata !"ap_int_base", metadata !"ap_int_base", metadata !"", metadata !142, i32 1521, metadata !197, i1 false, i1 false, i32 0, i32 0, null, i32 384, i1 false, null, null, i32 0, metadata !121, i32 1521} ; [ DW_TAG_subprogram ]
!197 = metadata !{i32 786453, i32 0, metadata !"", i32 0, i32 0, i64 0, i64 0, i64 0, i32 0, null, metadata !198, i32 0, i32 0} ; [ DW_TAG_subroutine_type ]
!198 = metadata !{null, metadata !162, metadata !156}
!199 = metadata !{i32 786478, i32 0, metadata !141, metadata !"ap_int_base", metadata !"ap_int_base", metadata !"", metadata !142, i32 1522, metadata !200, i1 false, i1 false, i32 0, i32 0, null, i32 384, i1 false, null, null, i32 0, metadata !121, i32 1522} ; [ DW_TAG_subprogram ]
!200 = metadata !{i32 786453, i32 0, metadata !"", i32 0, i32 0, i64 0, i64 0, i64 0, i32 0, null, metadata !201, i32 0, i32 0} ; [ DW_TAG_subroutine_type ]
!201 = metadata !{null, metadata !162, metadata !202}
!202 = metadata !{i32 786468, null, metadata !"unsigned int", null, i32 0, i64 32, i64 32, i64 0, i32 0, i32 7} ; [ DW_TAG_base_type ]
!203 = metadata !{i32 786478, i32 0, metadata !141, metadata !"ap_int_base", metadata !"ap_int_base", metadata !"", metadata !142, i32 1523, metadata !204, i1 false, i1 false, i32 0, i32 0, null, i32 384, i1 false, null, null, i32 0, metadata !121, i32 1523} ; [ DW_TAG_subprogram ]
!204 = metadata !{i32 786453, i32 0, metadata !"", i32 0, i32 0, i64 0, i64 0, i64 0, i32 0, null, metadata !205, i32 0, i32 0} ; [ DW_TAG_subroutine_type ]
!205 = metadata !{null, metadata !162, metadata !206}
!206 = metadata !{i32 786468, null, metadata !"long int", null, i32 0, i64 64, i64 64, i64 0, i32 0, i32 5} ; [ DW_TAG_base_type ]
!207 = metadata !{i32 786478, i32 0, metadata !141, metadata !"ap_int_base", metadata !"ap_int_base", metadata !"", metadata !142, i32 1524, metadata !208, i1 false, i1 false, i32 0, i32 0, null, i32 384, i1 false, null, null, i32 0, metadata !121, i32 1524} ; [ DW_TAG_subprogram ]
!208 = metadata !{i32 786453, i32 0, metadata !"", i32 0, i32 0, i64 0, i64 0, i64 0, i32 0, null, metadata !209, i32 0, i32 0} ; [ DW_TAG_subroutine_type ]
!209 = metadata !{null, metadata !162, metadata !210}
!210 = metadata !{i32 786468, null, metadata !"long unsigned int", null, i32 0, i64 64, i64 64, i64 0, i32 0, i32 7} ; [ DW_TAG_base_type ]
!211 = metadata !{i32 786478, i32 0, metadata !141, metadata !"ap_int_base", metadata !"ap_int_base", metadata !"", metadata !142, i32 1525, metadata !212, i1 false, i1 false, i32 0, i32 0, null, i32 384, i1 false, null, null, i32 0, metadata !121, i32 1525} ; [ DW_TAG_subprogram ]
!212 = metadata !{i32 786453, i32 0, metadata !"", i32 0, i32 0, i64 0, i64 0, i64 0, i32 0, null, metadata !213, i32 0, i32 0} ; [ DW_TAG_subroutine_type ]
!213 = metadata !{null, metadata !162, metadata !214}
!214 = metadata !{i32 786454, null, metadata !"ap_slong", metadata !142, i32 112, i64 0, i64 0, i64 0, i32 0, metadata !215} ; [ DW_TAG_typedef ]
!215 = metadata !{i32 786468, null, metadata !"long long int", null, i32 0, i64 64, i64 64, i64 0, i32 0, i32 5} ; [ DW_TAG_base_type ]
!216 = metadata !{i32 786478, i32 0, metadata !141, metadata !"ap_int_base", metadata !"ap_int_base", metadata !"", metadata !142, i32 1526, metadata !217, i1 false, i1 false, i32 0, i32 0, null, i32 384, i1 false, null, null, i32 0, metadata !121, i32 1526} ; [ DW_TAG_subprogram ]
!217 = metadata !{i32 786453, i32 0, metadata !"", i32 0, i32 0, i64 0, i64 0, i64 0, i32 0, null, metadata !218, i32 0, i32 0} ; [ DW_TAG_subroutine_type ]
!218 = metadata !{null, metadata !162, metadata !219}
!219 = metadata !{i32 786454, null, metadata !"ap_ulong", metadata !142, i32 111, i64 0, i64 0, i64 0, i32 0, metadata !220} ; [ DW_TAG_typedef ]
!220 = metadata !{i32 786468, null, metadata !"long long unsigned int", null, i32 0, i64 64, i64 64, i64 0, i32 0, i32 7} ; [ DW_TAG_base_type ]
!221 = metadata !{i32 786478, i32 0, metadata !141, metadata !"ap_int_base", metadata !"ap_int_base", metadata !"", metadata !142, i32 1527, metadata !222, i1 false, i1 false, i32 0, i32 0, null, i32 384, i1 false, null, null, i32 0, metadata !121, i32 1527} ; [ DW_TAG_subprogram ]
!222 = metadata !{i32 786453, i32 0, metadata !"", i32 0, i32 0, i64 0, i64 0, i64 0, i32 0, null, metadata !223, i32 0, i32 0} ; [ DW_TAG_subroutine_type ]
!223 = metadata !{null, metadata !162, metadata !224}
!224 = metadata !{i32 786454, null, metadata !"half", metadata !142, i32 54, i64 0, i64 0, i64 0, i32 0, metadata !225} ; [ DW_TAG_typedef ]
!225 = metadata !{i32 786468, null, metadata !"half", null, i32 0, i64 16, i64 16, i64 0, i32 0, i32 4} ; [ DW_TAG_base_type ]
!226 = metadata !{i32 786478, i32 0, metadata !141, metadata !"ap_int_base", metadata !"ap_int_base", metadata !"", metadata !142, i32 1528, metadata !227, i1 false, i1 false, i32 0, i32 0, null, i32 384, i1 false, null, null, i32 0, metadata !121, i32 1528} ; [ DW_TAG_subprogram ]
!227 = metadata !{i32 786453, i32 0, metadata !"", i32 0, i32 0, i64 0, i64 0, i64 0, i32 0, null, metadata !228, i32 0, i32 0} ; [ DW_TAG_subroutine_type ]
!228 = metadata !{null, metadata !162, metadata !229}
!229 = metadata !{i32 786468, null, metadata !"float", null, i32 0, i64 32, i64 32, i64 0, i32 0, i32 4} ; [ DW_TAG_base_type ]
!230 = metadata !{i32 786478, i32 0, metadata !141, metadata !"ap_int_base", metadata !"ap_int_base", metadata !"", metadata !142, i32 1529, metadata !231, i1 false, i1 false, i32 0, i32 0, null, i32 384, i1 false, null, null, i32 0, metadata !121, i32 1529} ; [ DW_TAG_subprogram ]
!231 = metadata !{i32 786453, i32 0, metadata !"", i32 0, i32 0, i64 0, i64 0, i64 0, i32 0, null, metadata !232, i32 0, i32 0} ; [ DW_TAG_subroutine_type ]
!232 = metadata !{null, metadata !162, metadata !233}
!233 = metadata !{i32 786468, null, metadata !"double", null, i32 0, i64 64, i64 64, i64 0, i32 0, i32 4} ; [ DW_TAG_base_type ]
!234 = metadata !{i32 786478, i32 0, metadata !141, metadata !"ap_int_base", metadata !"ap_int_base", metadata !"", metadata !142, i32 1556, metadata !235, i1 false, i1 false, i32 0, i32 0, null, i32 256, i1 false, null, null, i32 0, metadata !121, i32 1556} ; [ DW_TAG_subprogram ]
!235 = metadata !{i32 786453, i32 0, metadata !"", i32 0, i32 0, i64 0, i64 0, i64 0, i32 0, null, metadata !236, i32 0, i32 0} ; [ DW_TAG_subroutine_type ]
!236 = metadata !{null, metadata !162, metadata !237}
!237 = metadata !{i32 786447, null, metadata !"", null, i32 0, i64 64, i64 64, i64 0, i32 0, metadata !238} ; [ DW_TAG_pointer_type ]
!238 = metadata !{i32 786470, null, metadata !"", null, i32 0, i64 0, i64 0, i64 0, i32 0, metadata !239} ; [ DW_TAG_const_type ]
!239 = metadata !{i32 786468, null, metadata !"char", null, i32 0, i64 8, i64 8, i64 0, i32 0, i32 6} ; [ DW_TAG_base_type ]
!240 = metadata !{i32 786478, i32 0, metadata !141, metadata !"ap_int_base", metadata !"ap_int_base", metadata !"", metadata !142, i32 1563, metadata !241, i1 false, i1 false, i32 0, i32 0, null, i32 256, i1 false, null, null, i32 0, metadata !121, i32 1563} ; [ DW_TAG_subprogram ]
!241 = metadata !{i32 786453, i32 0, metadata !"", i32 0, i32 0, i64 0, i64 0, i64 0, i32 0, null, metadata !242, i32 0, i32 0} ; [ DW_TAG_subroutine_type ]
!242 = metadata !{null, metadata !162, metadata !237, metadata !183}
!243 = metadata !{i32 786478, i32 0, metadata !141, metadata !"read", metadata !"read", metadata !"_ZNV11ap_int_baseILi10ELb0ELb1EE4readEv", metadata !142, i32 1584, metadata !244, i1 false, i1 false, i32 0, i32 0, null, i32 256, i1 false, null, null, i32 0, metadata !121, i32 1584} ; [ DW_TAG_subprogram ]
!244 = metadata !{i32 786453, i32 0, metadata !"", i32 0, i32 0, i64 0, i64 0, i64 0, i32 0, null, metadata !245, i32 0, i32 0} ; [ DW_TAG_subroutine_type ]
!245 = metadata !{metadata !141, metadata !246}
!246 = metadata !{i32 786447, i32 0, metadata !"", i32 0, i32 0, i64 64, i64 64, i64 0, i32 64, metadata !176} ; [ DW_TAG_pointer_type ]
!247 = metadata !{i32 786478, i32 0, metadata !141, metadata !"write", metadata !"write", metadata !"_ZNV11ap_int_baseILi10ELb0ELb1EE5writeERKS0_", metadata !142, i32 1590, metadata !248, i1 false, i1 false, i32 0, i32 0, null, i32 256, i1 false, null, null, i32 0, metadata !121, i32 1590} ; [ DW_TAG_subprogram ]
!248 = metadata !{i32 786453, i32 0, metadata !"", i32 0, i32 0, i64 0, i64 0, i64 0, i32 0, null, metadata !249, i32 0, i32 0} ; [ DW_TAG_subroutine_type ]
!249 = metadata !{null, metadata !246, metadata !166}
!250 = metadata !{i32 786478, i32 0, metadata !141, metadata !"operator=", metadata !"operator=", metadata !"_ZNV11ap_int_baseILi10ELb0ELb1EEaSERVKS0_", metadata !142, i32 1602, metadata !251, i1 false, i1 false, i32 0, i32 0, null, i32 256, i1 false, null, null, i32 0, metadata !121, i32 1602} ; [ DW_TAG_subprogram ]
!251 = metadata !{i32 786453, i32 0, metadata !"", i32 0, i32 0, i64 0, i64 0, i64 0, i32 0, null, metadata !252, i32 0, i32 0} ; [ DW_TAG_subroutine_type ]
!252 = metadata !{null, metadata !246, metadata !174}
!253 = metadata !{i32 786478, i32 0, metadata !141, metadata !"operator=", metadata !"operator=", metadata !"_ZNV11ap_int_baseILi10ELb0ELb1EEaSERKS0_", metadata !142, i32 1611, metadata !248, i1 false, i1 false, i32 0, i32 0, null, i32 256, i1 false, null, null, i32 0, metadata !121, i32 1611} ; [ DW_TAG_subprogram ]
!254 = metadata !{i32 786478, i32 0, metadata !141, metadata !"operator=", metadata !"operator=", metadata !"_ZN11ap_int_baseILi10ELb0ELb1EEaSERVKS0_", metadata !142, i32 1634, metadata !255, i1 false, i1 false, i32 0, i32 0, null, i32 256, i1 false, null, null, i32 0, metadata !121, i32 1634} ; [ DW_TAG_subprogram ]
!255 = metadata !{i32 786453, i32 0, metadata !"", i32 0, i32 0, i64 0, i64 0, i64 0, i32 0, null, metadata !256, i32 0, i32 0} ; [ DW_TAG_subroutine_type ]
!256 = metadata !{metadata !257, metadata !162, metadata !174}
!257 = metadata !{i32 786448, null, null, null, i32 0, i64 0, i64 0, i64 0, i32 0, metadata !141} ; [ DW_TAG_reference_type ]
!258 = metadata !{i32 786478, i32 0, metadata !141, metadata !"operator=", metadata !"operator=", metadata !"_ZN11ap_int_baseILi10ELb0ELb1EEaSERKS0_", metadata !142, i32 1639, metadata !259, i1 false, i1 false, i32 0, i32 0, null, i32 256, i1 false, null, null, i32 0, metadata !121, i32 1639} ; [ DW_TAG_subprogram ]
!259 = metadata !{i32 786453, i32 0, metadata !"", i32 0, i32 0, i64 0, i64 0, i64 0, i32 0, null, metadata !260, i32 0, i32 0} ; [ DW_TAG_subroutine_type ]
!260 = metadata !{metadata !257, metadata !162, metadata !166}
!261 = metadata !{i32 786478, i32 0, metadata !141, metadata !"operator=", metadata !"operator=", metadata !"_ZN11ap_int_baseILi10ELb0ELb1EEaSEPKc", metadata !142, i32 1643, metadata !262, i1 false, i1 false, i32 0, i32 0, null, i32 256, i1 false, null, null, i32 0, metadata !121, i32 1643} ; [ DW_TAG_subprogram ]
!262 = metadata !{i32 786453, i32 0, metadata !"", i32 0, i32 0, i64 0, i64 0, i64 0, i32 0, null, metadata !263, i32 0, i32 0} ; [ DW_TAG_subroutine_type ]
!263 = metadata !{metadata !257, metadata !162, metadata !237}
!264 = metadata !{i32 786478, i32 0, metadata !141, metadata !"set", metadata !"set", metadata !"_ZN11ap_int_baseILi10ELb0ELb1EE3setEPKca", metadata !142, i32 1651, metadata !265, i1 false, i1 false, i32 0, i32 0, null, i32 256, i1 false, null, null, i32 0, metadata !121, i32 1651} ; [ DW_TAG_subprogram ]
!265 = metadata !{i32 786453, i32 0, metadata !"", i32 0, i32 0, i64 0, i64 0, i64 0, i32 0, null, metadata !266, i32 0, i32 0} ; [ DW_TAG_subroutine_type ]
!266 = metadata !{metadata !257, metadata !162, metadata !237, metadata !183}
!267 = metadata !{i32 786478, i32 0, metadata !141, metadata !"operator=", metadata !"operator=", metadata !"_ZN11ap_int_baseILi10ELb0ELb1EEaSEa", metadata !142, i32 1665, metadata !268, i1 false, i1 false, i32 0, i32 0, null, i32 256, i1 false, null, null, i32 0, metadata !121, i32 1665} ; [ DW_TAG_subprogram ]
!268 = metadata !{i32 786453, i32 0, metadata !"", i32 0, i32 0, i64 0, i64 0, i64 0, i32 0, null, metadata !269, i32 0, i32 0} ; [ DW_TAG_subroutine_type ]
!269 = metadata !{metadata !257, metadata !162, metadata !183}
!270 = metadata !{i32 786478, i32 0, metadata !141, metadata !"operator=", metadata !"operator=", metadata !"_ZN11ap_int_baseILi10ELb0ELb1EEaSEh", metadata !142, i32 1666, metadata !271, i1 false, i1 false, i32 0, i32 0, null, i32 256, i1 false, null, null, i32 0, metadata !121, i32 1666} ; [ DW_TAG_subprogram ]
!271 = metadata !{i32 786453, i32 0, metadata !"", i32 0, i32 0, i64 0, i64 0, i64 0, i32 0, null, metadata !272, i32 0, i32 0} ; [ DW_TAG_subroutine_type ]
!272 = metadata !{metadata !257, metadata !162, metadata !187}
!273 = metadata !{i32 786478, i32 0, metadata !141, metadata !"operator=", metadata !"operator=", metadata !"_ZN11ap_int_baseILi10ELb0ELb1EEaSEs", metadata !142, i32 1667, metadata !274, i1 false, i1 false, i32 0, i32 0, null, i32 256, i1 false, null, null, i32 0, metadata !121, i32 1667} ; [ DW_TAG_subprogram ]
!274 = metadata !{i32 786453, i32 0, metadata !"", i32 0, i32 0, i64 0, i64 0, i64 0, i32 0, null, metadata !275, i32 0, i32 0} ; [ DW_TAG_subroutine_type ]
!275 = metadata !{metadata !257, metadata !162, metadata !191}
!276 = metadata !{i32 786478, i32 0, metadata !141, metadata !"operator=", metadata !"operator=", metadata !"_ZN11ap_int_baseILi10ELb0ELb1EEaSEt", metadata !142, i32 1668, metadata !277, i1 false, i1 false, i32 0, i32 0, null, i32 256, i1 false, null, null, i32 0, metadata !121, i32 1668} ; [ DW_TAG_subprogram ]
!277 = metadata !{i32 786453, i32 0, metadata !"", i32 0, i32 0, i64 0, i64 0, i64 0, i32 0, null, metadata !278, i32 0, i32 0} ; [ DW_TAG_subroutine_type ]
!278 = metadata !{metadata !257, metadata !162, metadata !195}
!279 = metadata !{i32 786478, i32 0, metadata !141, metadata !"operator=", metadata !"operator=", metadata !"_ZN11ap_int_baseILi10ELb0ELb1EEaSEi", metadata !142, i32 1669, metadata !280, i1 false, i1 false, i32 0, i32 0, null, i32 256, i1 false, null, null, i32 0, metadata !121, i32 1669} ; [ DW_TAG_subprogram ]
!280 = metadata !{i32 786453, i32 0, metadata !"", i32 0, i32 0, i64 0, i64 0, i64 0, i32 0, null, metadata !281, i32 0, i32 0} ; [ DW_TAG_subroutine_type ]
!281 = metadata !{metadata !257, metadata !162, metadata !156}
!282 = metadata !{i32 786478, i32 0, metadata !141, metadata !"operator=", metadata !"operator=", metadata !"_ZN11ap_int_baseILi10ELb0ELb1EEaSEj", metadata !142, i32 1670, metadata !283, i1 false, i1 false, i32 0, i32 0, null, i32 256, i1 false, null, null, i32 0, metadata !121, i32 1670} ; [ DW_TAG_subprogram ]
!283 = metadata !{i32 786453, i32 0, metadata !"", i32 0, i32 0, i64 0, i64 0, i64 0, i32 0, null, metadata !284, i32 0, i32 0} ; [ DW_TAG_subroutine_type ]
!284 = metadata !{metadata !257, metadata !162, metadata !202}
!285 = metadata !{i32 786478, i32 0, metadata !141, metadata !"operator=", metadata !"operator=", metadata !"_ZN11ap_int_baseILi10ELb0ELb1EEaSEx", metadata !142, i32 1671, metadata !286, i1 false, i1 false, i32 0, i32 0, null, i32 256, i1 false, null, null, i32 0, metadata !121, i32 1671} ; [ DW_TAG_subprogram ]
!286 = metadata !{i32 786453, i32 0, metadata !"", i32 0, i32 0, i64 0, i64 0, i64 0, i32 0, null, metadata !287, i32 0, i32 0} ; [ DW_TAG_subroutine_type ]
!287 = metadata !{metadata !257, metadata !162, metadata !214}
!288 = metadata !{i32 786478, i32 0, metadata !141, metadata !"operator=", metadata !"operator=", metadata !"_ZN11ap_int_baseILi10ELb0ELb1EEaSEy", metadata !142, i32 1672, metadata !289, i1 false, i1 false, i32 0, i32 0, null, i32 256, i1 false, null, null, i32 0, metadata !121, i32 1672} ; [ DW_TAG_subprogram ]
!289 = metadata !{i32 786453, i32 0, metadata !"", i32 0, i32 0, i64 0, i64 0, i64 0, i32 0, null, metadata !290, i32 0, i32 0} ; [ DW_TAG_subroutine_type ]
!290 = metadata !{metadata !257, metadata !162, metadata !219}
!291 = metadata !{i32 786478, i32 0, metadata !141, metadata !"operator unsigned short", metadata !"operator unsigned short", metadata !"_ZNK11ap_int_baseILi10ELb0ELb1EEcvtEv", metadata !142, i32 1710, metadata !292, i1 false, i1 false, i32 0, i32 0, null, i32 256, i1 false, null, null, i32 0, metadata !121, i32 1710} ; [ DW_TAG_subprogram ]
!292 = metadata !{i32 786453, i32 0, metadata !"", i32 0, i32 0, i64 0, i64 0, i64 0, i32 0, null, metadata !293, i32 0, i32 0} ; [ DW_TAG_subroutine_type ]
!293 = metadata !{metadata !294, metadata !300}
!294 = metadata !{i32 786454, metadata !141, metadata !"RetType", metadata !142, i32 1458, i64 0, i64 0, i64 0, i32 0, metadata !295} ; [ DW_TAG_typedef ]
!295 = metadata !{i32 786454, metadata !296, metadata !"Type", metadata !142, i32 1432, i64 0, i64 0, i64 0, i32 0, metadata !195} ; [ DW_TAG_typedef ]
!296 = metadata !{i32 786434, null, metadata !"retval<2, false>", metadata !142, i32 1431, i64 8, i64 8, i32 0, i32 0, null, metadata !297, i32 0, null, metadata !298} ; [ DW_TAG_class_type ]
!297 = metadata !{i32 0}
!298 = metadata !{metadata !299, metadata !157}
!299 = metadata !{i32 786480, null, metadata !"_AP_N", metadata !156, i64 2, null, i32 0, i32 0} ; [ DW_TAG_template_value_parameter ]
!300 = metadata !{i32 786447, i32 0, metadata !"", i32 0, i32 0, i64 64, i64 64, i64 0, i32 64, metadata !167} ; [ DW_TAG_pointer_type ]
!301 = metadata !{i32 786478, i32 0, metadata !141, metadata !"to_bool", metadata !"to_bool", metadata !"_ZNK11ap_int_baseILi10ELb0ELb1EE7to_boolEv", metadata !142, i32 1716, metadata !302, i1 false, i1 false, i32 0, i32 0, null, i32 256, i1 false, null, null, i32 0, metadata !121, i32 1716} ; [ DW_TAG_subprogram ]
!302 = metadata !{i32 786453, i32 0, metadata !"", i32 0, i32 0, i64 0, i64 0, i64 0, i32 0, null, metadata !303, i32 0, i32 0} ; [ DW_TAG_subroutine_type ]
!303 = metadata !{metadata !158, metadata !300}
!304 = metadata !{i32 786478, i32 0, metadata !141, metadata !"to_uchar", metadata !"to_uchar", metadata !"_ZNK11ap_int_baseILi10ELb0ELb1EE8to_ucharEv", metadata !142, i32 1717, metadata !305, i1 false, i1 false, i32 0, i32 0, null, i32 256, i1 false, null, null, i32 0, metadata !121, i32 1717} ; [ DW_TAG_subprogram ]
!305 = metadata !{i32 786453, i32 0, metadata !"", i32 0, i32 0, i64 0, i64 0, i64 0, i32 0, null, metadata !306, i32 0, i32 0} ; [ DW_TAG_subroutine_type ]
!306 = metadata !{metadata !187, metadata !300}
!307 = metadata !{i32 786478, i32 0, metadata !141, metadata !"to_char", metadata !"to_char", metadata !"_ZNK11ap_int_baseILi10ELb0ELb1EE7to_charEv", metadata !142, i32 1718, metadata !308, i1 false, i1 false, i32 0, i32 0, null, i32 256, i1 false, null, null, i32 0, metadata !121, i32 1718} ; [ DW_TAG_subprogram ]
!308 = metadata !{i32 786453, i32 0, metadata !"", i32 0, i32 0, i64 0, i64 0, i64 0, i32 0, null, metadata !309, i32 0, i32 0} ; [ DW_TAG_subroutine_type ]
!309 = metadata !{metadata !183, metadata !300}
!310 = metadata !{i32 786478, i32 0, metadata !141, metadata !"to_ushort", metadata !"to_ushort", metadata !"_ZNK11ap_int_baseILi10ELb0ELb1EE9to_ushortEv", metadata !142, i32 1719, metadata !311, i1 false, i1 false, i32 0, i32 0, null, i32 256, i1 false, null, null, i32 0, metadata !121, i32 1719} ; [ DW_TAG_subprogram ]
!311 = metadata !{i32 786453, i32 0, metadata !"", i32 0, i32 0, i64 0, i64 0, i64 0, i32 0, null, metadata !312, i32 0, i32 0} ; [ DW_TAG_subroutine_type ]
!312 = metadata !{metadata !195, metadata !300}
!313 = metadata !{i32 786478, i32 0, metadata !141, metadata !"to_short", metadata !"to_short", metadata !"_ZNK11ap_int_baseILi10ELb0ELb1EE8to_shortEv", metadata !142, i32 1720, metadata !314, i1 false, i1 false, i32 0, i32 0, null, i32 256, i1 false, null, null, i32 0, metadata !121, i32 1720} ; [ DW_TAG_subprogram ]
!314 = metadata !{i32 786453, i32 0, metadata !"", i32 0, i32 0, i64 0, i64 0, i64 0, i32 0, null, metadata !315, i32 0, i32 0} ; [ DW_TAG_subroutine_type ]
!315 = metadata !{metadata !191, metadata !300}
!316 = metadata !{i32 786478, i32 0, metadata !141, metadata !"to_int", metadata !"to_int", metadata !"_ZNK11ap_int_baseILi10ELb0ELb1EE6to_intEv", metadata !142, i32 1721, metadata !317, i1 false, i1 false, i32 0, i32 0, null, i32 256, i1 false, null, null, i32 0, metadata !121, i32 1721} ; [ DW_TAG_subprogram ]
!317 = metadata !{i32 786453, i32 0, metadata !"", i32 0, i32 0, i64 0, i64 0, i64 0, i32 0, null, metadata !318, i32 0, i32 0} ; [ DW_TAG_subroutine_type ]
!318 = metadata !{metadata !156, metadata !300}
!319 = metadata !{i32 786478, i32 0, metadata !141, metadata !"to_uint", metadata !"to_uint", metadata !"_ZNK11ap_int_baseILi10ELb0ELb1EE7to_uintEv", metadata !142, i32 1722, metadata !320, i1 false, i1 false, i32 0, i32 0, null, i32 256, i1 false, null, null, i32 0, metadata !121, i32 1722} ; [ DW_TAG_subprogram ]
!320 = metadata !{i32 786453, i32 0, metadata !"", i32 0, i32 0, i64 0, i64 0, i64 0, i32 0, null, metadata !321, i32 0, i32 0} ; [ DW_TAG_subroutine_type ]
!321 = metadata !{metadata !202, metadata !300}
!322 = metadata !{i32 786478, i32 0, metadata !141, metadata !"to_long", metadata !"to_long", metadata !"_ZNK11ap_int_baseILi10ELb0ELb1EE7to_longEv", metadata !142, i32 1723, metadata !323, i1 false, i1 false, i32 0, i32 0, null, i32 256, i1 false, null, null, i32 0, metadata !121, i32 1723} ; [ DW_TAG_subprogram ]
!323 = metadata !{i32 786453, i32 0, metadata !"", i32 0, i32 0, i64 0, i64 0, i64 0, i32 0, null, metadata !324, i32 0, i32 0} ; [ DW_TAG_subroutine_type ]
!324 = metadata !{metadata !206, metadata !300}
!325 = metadata !{i32 786478, i32 0, metadata !141, metadata !"to_ulong", metadata !"to_ulong", metadata !"_ZNK11ap_int_baseILi10ELb0ELb1EE8to_ulongEv", metadata !142, i32 1724, metadata !326, i1 false, i1 false, i32 0, i32 0, null, i32 256, i1 false, null, null, i32 0, metadata !121, i32 1724} ; [ DW_TAG_subprogram ]
!326 = metadata !{i32 786453, i32 0, metadata !"", i32 0, i32 0, i64 0, i64 0, i64 0, i32 0, null, metadata !327, i32 0, i32 0} ; [ DW_TAG_subroutine_type ]
!327 = metadata !{metadata !210, metadata !300}
!328 = metadata !{i32 786478, i32 0, metadata !141, metadata !"to_int64", metadata !"to_int64", metadata !"_ZNK11ap_int_baseILi10ELb0ELb1EE8to_int64Ev", metadata !142, i32 1725, metadata !329, i1 false, i1 false, i32 0, i32 0, null, i32 256, i1 false, null, null, i32 0, metadata !121, i32 1725} ; [ DW_TAG_subprogram ]
!329 = metadata !{i32 786453, i32 0, metadata !"", i32 0, i32 0, i64 0, i64 0, i64 0, i32 0, null, metadata !330, i32 0, i32 0} ; [ DW_TAG_subroutine_type ]
!330 = metadata !{metadata !214, metadata !300}
!331 = metadata !{i32 786478, i32 0, metadata !141, metadata !"to_uint64", metadata !"to_uint64", metadata !"_ZNK11ap_int_baseILi10ELb0ELb1EE9to_uint64Ev", metadata !142, i32 1726, metadata !332, i1 false, i1 false, i32 0, i32 0, null, i32 256, i1 false, null, null, i32 0, metadata !121, i32 1726} ; [ DW_TAG_subprogram ]
!332 = metadata !{i32 786453, i32 0, metadata !"", i32 0, i32 0, i64 0, i64 0, i64 0, i32 0, null, metadata !333, i32 0, i32 0} ; [ DW_TAG_subroutine_type ]
!333 = metadata !{metadata !219, metadata !300}
!334 = metadata !{i32 786478, i32 0, metadata !141, metadata !"to_double", metadata !"to_double", metadata !"_ZNK11ap_int_baseILi10ELb0ELb1EE9to_doubleEv", metadata !142, i32 1727, metadata !335, i1 false, i1 false, i32 0, i32 0, null, i32 256, i1 false, null, null, i32 0, metadata !121, i32 1727} ; [ DW_TAG_subprogram ]
!335 = metadata !{i32 786453, i32 0, metadata !"", i32 0, i32 0, i64 0, i64 0, i64 0, i32 0, null, metadata !336, i32 0, i32 0} ; [ DW_TAG_subroutine_type ]
!336 = metadata !{metadata !233, metadata !300}
!337 = metadata !{i32 786478, i32 0, metadata !141, metadata !"length", metadata !"length", metadata !"_ZNK11ap_int_baseILi10ELb0ELb1EE6lengthEv", metadata !142, i32 1741, metadata !317, i1 false, i1 false, i32 0, i32 0, null, i32 256, i1 false, null, null, i32 0, metadata !121, i32 1741} ; [ DW_TAG_subprogram ]
!338 = metadata !{i32 786478, i32 0, metadata !141, metadata !"length", metadata !"length", metadata !"_ZNVK11ap_int_baseILi10ELb0ELb1EE6lengthEv", metadata !142, i32 1742, metadata !339, i1 false, i1 false, i32 0, i32 0, null, i32 256, i1 false, null, null, i32 0, metadata !121, i32 1742} ; [ DW_TAG_subprogram ]
!339 = metadata !{i32 786453, i32 0, metadata !"", i32 0, i32 0, i64 0, i64 0, i64 0, i32 0, null, metadata !340, i32 0, i32 0} ; [ DW_TAG_subroutine_type ]
!340 = metadata !{metadata !156, metadata !341}
!341 = metadata !{i32 786447, i32 0, metadata !"", i32 0, i32 0, i64 64, i64 64, i64 0, i32 64, metadata !175} ; [ DW_TAG_pointer_type ]
!342 = metadata !{i32 786478, i32 0, metadata !141, metadata !"reverse", metadata !"reverse", metadata !"_ZN11ap_int_baseILi10ELb0ELb1EE7reverseEv", metadata !142, i32 1747, metadata !343, i1 false, i1 false, i32 0, i32 0, null, i32 256, i1 false, null, null, i32 0, metadata !121, i32 1747} ; [ DW_TAG_subprogram ]
!343 = metadata !{i32 786453, i32 0, metadata !"", i32 0, i32 0, i64 0, i64 0, i64 0, i32 0, null, metadata !344, i32 0, i32 0} ; [ DW_TAG_subroutine_type ]
!344 = metadata !{metadata !257, metadata !162}
!345 = metadata !{i32 786478, i32 0, metadata !141, metadata !"iszero", metadata !"iszero", metadata !"_ZNK11ap_int_baseILi10ELb0ELb1EE6iszeroEv", metadata !142, i32 1753, metadata !302, i1 false, i1 false, i32 0, i32 0, null, i32 256, i1 false, null, null, i32 0, metadata !121, i32 1753} ; [ DW_TAG_subprogram ]
!346 = metadata !{i32 786478, i32 0, metadata !141, metadata !"is_zero", metadata !"is_zero", metadata !"_ZNK11ap_int_baseILi10ELb0ELb1EE7is_zeroEv", metadata !142, i32 1758, metadata !302, i1 false, i1 false, i32 0, i32 0, null, i32 256, i1 false, null, null, i32 0, metadata !121, i32 1758} ; [ DW_TAG_subprogram ]
!347 = metadata !{i32 786478, i32 0, metadata !141, metadata !"sign", metadata !"sign", metadata !"_ZNK11ap_int_baseILi10ELb0ELb1EE4signEv", metadata !142, i32 1763, metadata !302, i1 false, i1 false, i32 0, i32 0, null, i32 256, i1 false, null, null, i32 0, metadata !121, i32 1763} ; [ DW_TAG_subprogram ]
!348 = metadata !{i32 786478, i32 0, metadata !141, metadata !"clear", metadata !"clear", metadata !"_ZN11ap_int_baseILi10ELb0ELb1EE5clearEi", metadata !142, i32 1771, metadata !197, i1 false, i1 false, i32 0, i32 0, null, i32 256, i1 false, null, null, i32 0, metadata !121, i32 1771} ; [ DW_TAG_subprogram ]
!349 = metadata !{i32 786478, i32 0, metadata !141, metadata !"invert", metadata !"invert", metadata !"_ZN11ap_int_baseILi10ELb0ELb1EE6invertEi", metadata !142, i32 1777, metadata !197, i1 false, i1 false, i32 0, i32 0, null, i32 256, i1 false, null, null, i32 0, metadata !121, i32 1777} ; [ DW_TAG_subprogram ]
!350 = metadata !{i32 786478, i32 0, metadata !141, metadata !"test", metadata !"test", metadata !"_ZNK11ap_int_baseILi10ELb0ELb1EE4testEi", metadata !142, i32 1785, metadata !351, i1 false, i1 false, i32 0, i32 0, null, i32 256, i1 false, null, null, i32 0, metadata !121, i32 1785} ; [ DW_TAG_subprogram ]
!351 = metadata !{i32 786453, i32 0, metadata !"", i32 0, i32 0, i64 0, i64 0, i64 0, i32 0, null, metadata !352, i32 0, i32 0} ; [ DW_TAG_subroutine_type ]
!352 = metadata !{metadata !158, metadata !300, metadata !156}
!353 = metadata !{i32 786478, i32 0, metadata !141, metadata !"set", metadata !"set", metadata !"_ZN11ap_int_baseILi10ELb0ELb1EE3setEi", metadata !142, i32 1791, metadata !197, i1 false, i1 false, i32 0, i32 0, null, i32 256, i1 false, null, null, i32 0, metadata !121, i32 1791} ; [ DW_TAG_subprogram ]
!354 = metadata !{i32 786478, i32 0, metadata !141, metadata !"set", metadata !"set", metadata !"_ZN11ap_int_baseILi10ELb0ELb1EE3setEib", metadata !142, i32 1797, metadata !355, i1 false, i1 false, i32 0, i32 0, null, i32 256, i1 false, null, null, i32 0, metadata !121, i32 1797} ; [ DW_TAG_subprogram ]
!355 = metadata !{i32 786453, i32 0, metadata !"", i32 0, i32 0, i64 0, i64 0, i64 0, i32 0, null, metadata !356, i32 0, i32 0} ; [ DW_TAG_subroutine_type ]
!356 = metadata !{null, metadata !162, metadata !156, metadata !158}
!357 = metadata !{i32 786478, i32 0, metadata !141, metadata !"lrotate", metadata !"lrotate", metadata !"_ZN11ap_int_baseILi10ELb0ELb1EE7lrotateEi", metadata !142, i32 1804, metadata !197, i1 false, i1 false, i32 0, i32 0, null, i32 256, i1 false, null, null, i32 0, metadata !121, i32 1804} ; [ DW_TAG_subprogram ]
!358 = metadata !{i32 786478, i32 0, metadata !141, metadata !"rrotate", metadata !"rrotate", metadata !"_ZN11ap_int_baseILi10ELb0ELb1EE7rrotateEi", metadata !142, i32 1813, metadata !197, i1 false, i1 false, i32 0, i32 0, null, i32 256, i1 false, null, null, i32 0, metadata !121, i32 1813} ; [ DW_TAG_subprogram ]
!359 = metadata !{i32 786478, i32 0, metadata !141, metadata !"set_bit", metadata !"set_bit", metadata !"_ZN11ap_int_baseILi10ELb0ELb1EE7set_bitEib", metadata !142, i32 1821, metadata !355, i1 false, i1 false, i32 0, i32 0, null, i32 256, i1 false, null, null, i32 0, metadata !121, i32 1821} ; [ DW_TAG_subprogram ]
!360 = metadata !{i32 786478, i32 0, metadata !141, metadata !"get_bit", metadata !"get_bit", metadata !"_ZNK11ap_int_baseILi10ELb0ELb1EE7get_bitEi", metadata !142, i32 1826, metadata !351, i1 false, i1 false, i32 0, i32 0, null, i32 256, i1 false, null, null, i32 0, metadata !121, i32 1826} ; [ DW_TAG_subprogram ]
!361 = metadata !{i32 786478, i32 0, metadata !141, metadata !"b_not", metadata !"b_not", metadata !"_ZN11ap_int_baseILi10ELb0ELb1EE5b_notEv", metadata !142, i32 1831, metadata !160, i1 false, i1 false, i32 0, i32 0, null, i32 256, i1 false, null, null, i32 0, metadata !121, i32 1831} ; [ DW_TAG_subprogram ]
!362 = metadata !{i32 786478, i32 0, metadata !141, metadata !"countLeadingZeros", metadata !"countLeadingZeros", metadata !"_ZN11ap_int_baseILi10ELb0ELb1EE17countLeadingZerosEv", metadata !142, i32 1838, metadata !363, i1 false, i1 false, i32 0, i32 0, null, i32 256, i1 false, null, null, i32 0, metadata !121, i32 1838} ; [ DW_TAG_subprogram ]
!363 = metadata !{i32 786453, i32 0, metadata !"", i32 0, i32 0, i64 0, i64 0, i64 0, i32 0, null, metadata !364, i32 0, i32 0} ; [ DW_TAG_subroutine_type ]
!364 = metadata !{metadata !156, metadata !162}
!365 = metadata !{i32 786478, i32 0, metadata !141, metadata !"operator++", metadata !"operator++", metadata !"_ZN11ap_int_baseILi10ELb0ELb1EEppEv", metadata !142, i32 1895, metadata !343, i1 false, i1 false, i32 0, i32 0, null, i32 256, i1 false, null, null, i32 0, metadata !121, i32 1895} ; [ DW_TAG_subprogram ]
!366 = metadata !{i32 786478, i32 0, metadata !141, metadata !"operator--", metadata !"operator--", metadata !"_ZN11ap_int_baseILi10ELb0ELb1EEmmEv", metadata !142, i32 1899, metadata !343, i1 false, i1 false, i32 0, i32 0, null, i32 256, i1 false, null, null, i32 0, metadata !121, i32 1899} ; [ DW_TAG_subprogram ]
!367 = metadata !{i32 786478, i32 0, metadata !141, metadata !"operator++", metadata !"operator++", metadata !"_ZN11ap_int_baseILi10ELb0ELb1EEppEi", metadata !142, i32 1907, metadata !368, i1 false, i1 false, i32 0, i32 0, null, i32 256, i1 false, null, null, i32 0, metadata !121, i32 1907} ; [ DW_TAG_subprogram ]
!368 = metadata !{i32 786453, i32 0, metadata !"", i32 0, i32 0, i64 0, i64 0, i64 0, i32 0, null, metadata !369, i32 0, i32 0} ; [ DW_TAG_subroutine_type ]
!369 = metadata !{metadata !167, metadata !162, metadata !156}
!370 = metadata !{i32 786478, i32 0, metadata !141, metadata !"operator--", metadata !"operator--", metadata !"_ZN11ap_int_baseILi10ELb0ELb1EEmmEi", metadata !142, i32 1912, metadata !368, i1 false, i1 false, i32 0, i32 0, null, i32 256, i1 false, null, null, i32 0, metadata !121, i32 1912} ; [ DW_TAG_subprogram ]
!371 = metadata !{i32 786478, i32 0, metadata !141, metadata !"operator+", metadata !"operator+", metadata !"_ZNK11ap_int_baseILi10ELb0ELb1EEpsEv", metadata !142, i32 1921, metadata !372, i1 false, i1 false, i32 0, i32 0, null, i32 256, i1 false, null, null, i32 0, metadata !121, i32 1921} ; [ DW_TAG_subprogram ]
!372 = metadata !{i32 786453, i32 0, metadata !"", i32 0, i32 0, i64 0, i64 0, i64 0, i32 0, null, metadata !373, i32 0, i32 0} ; [ DW_TAG_subroutine_type ]
!373 = metadata !{metadata !141, metadata !300}
!374 = metadata !{i32 786478, i32 0, metadata !141, metadata !"operator!", metadata !"operator!", metadata !"_ZNK11ap_int_baseILi10ELb0ELb1EEntEv", metadata !142, i32 1927, metadata !302, i1 false, i1 false, i32 0, i32 0, null, i32 256, i1 false, null, null, i32 0, metadata !121, i32 1927} ; [ DW_TAG_subprogram ]
!375 = metadata !{i32 786478, i32 0, metadata !141, metadata !"operator-", metadata !"operator-", metadata !"_ZNK11ap_int_baseILi10ELb0ELb1EEngEv", metadata !142, i32 1932, metadata !376, i1 false, i1 false, i32 0, i32 0, null, i32 256, i1 false, null, null, i32 0, metadata !121, i32 1932} ; [ DW_TAG_subprogram ]
!376 = metadata !{i32 786453, i32 0, metadata !"", i32 0, i32 0, i64 0, i64 0, i64 0, i32 0, null, metadata !377, i32 0, i32 0} ; [ DW_TAG_subroutine_type ]
!377 = metadata !{metadata !378, metadata !300}
!378 = metadata !{i32 786434, null, metadata !"ap_int_base<11, true, true>", metadata !142, i32 1453, i64 16, i64 16, i32 0, i32 0, null, metadata !379, i32 0, null, metadata !1178} ; [ DW_TAG_class_type ]
!379 = metadata !{metadata !380, metadata !392, metadata !396, metadata !399, metadata !402, metadata !405, metadata !408, metadata !411, metadata !414, metadata !417, metadata !420, metadata !423, metadata !426, metadata !429, metadata !432, metadata !435, metadata !438, metadata !441, metadata !444, metadata !449, metadata !454, metadata !459, metadata !460, metadata !464, metadata !467, metadata !470, metadata !473, metadata !476, metadata !479, metadata !482, metadata !485, metadata !488, metadata !491, metadata !494, metadata !497, metadata !505, metadata !508, metadata !511, metadata !514, metadata !517, metadata !520, metadata !523, metadata !526, metadata !529, metadata !532, metadata !535, metadata !538, metadata !541, metadata !542, metadata !546, metadata !549, metadata !550, metadata !551, metadata !552, metadata !553, metadata !554, metadata !557, metadata !558, metadata !561, metadata !562, metadata !563, metadata !564, metadata !565, metadata !566, metadata !569, metadata !570, metadata !571, metadata !574, metadata !575, metadata !578, metadata !579, metadata !1139, metadata !1143, metadata !1144, metadata !1147, metadata !1148, metadata !1152, metadata !1153, metadata !1154, metadata !1155, metadata !1158, metadata !1159, metadata !1160, metadata !1161, metadata !1162, metadata !1163, metadata !1164, metadata !1165, metadata !1166, metadata !1167, metadata !1168, metadata !1169, metadata !1172, metadata !1175}
!380 = metadata !{i32 786460, metadata !378, null, metadata !142, i32 0, i64 0, i64 0, i64 0, i32 0, metadata !381} ; [ DW_TAG_inheritance ]
!381 = metadata !{i32 786434, null, metadata !"ssdm_int<11 + 1024 * 0, true>", metadata !146, i32 23, i64 16, i64 16, i32 0, i32 0, null, metadata !382, i32 0, null, metadata !389} ; [ DW_TAG_class_type ]
!382 = metadata !{metadata !383, metadata !385}
!383 = metadata !{i32 786445, metadata !381, metadata !"V", metadata !146, i32 23, i64 11, i64 16, i64 0, i32 0, metadata !384} ; [ DW_TAG_member ]
!384 = metadata !{i32 786468, null, metadata !"int11", null, i32 0, i64 11, i64 16, i64 0, i32 0, i32 5} ; [ DW_TAG_base_type ]
!385 = metadata !{i32 786478, i32 0, metadata !381, metadata !"ssdm_int", metadata !"ssdm_int", metadata !"", metadata !146, i32 23, metadata !386, i1 false, i1 false, i32 0, i32 0, null, i32 256, i1 false, null, null, i32 0, metadata !121, i32 23} ; [ DW_TAG_subprogram ]
!386 = metadata !{i32 786453, i32 0, metadata !"", i32 0, i32 0, i64 0, i64 0, i64 0, i32 0, null, metadata !387, i32 0, i32 0} ; [ DW_TAG_subroutine_type ]
!387 = metadata !{null, metadata !388}
!388 = metadata !{i32 786447, i32 0, metadata !"", i32 0, i32 0, i64 64, i64 64, i64 0, i32 64, metadata !381} ; [ DW_TAG_pointer_type ]
!389 = metadata !{metadata !390, metadata !391}
!390 = metadata !{i32 786480, null, metadata !"_AP_N", metadata !156, i64 11, null, i32 0, i32 0} ; [ DW_TAG_template_value_parameter ]
!391 = metadata !{i32 786480, null, metadata !"_AP_S", metadata !158, i64 1, null, i32 0, i32 0} ; [ DW_TAG_template_value_parameter ]
!392 = metadata !{i32 786478, i32 0, metadata !378, metadata !"ap_int_base", metadata !"ap_int_base", metadata !"", metadata !142, i32 1494, metadata !393, i1 false, i1 false, i32 0, i32 0, null, i32 256, i1 false, null, null, i32 0, metadata !121, i32 1494} ; [ DW_TAG_subprogram ]
!393 = metadata !{i32 786453, i32 0, metadata !"", i32 0, i32 0, i64 0, i64 0, i64 0, i32 0, null, metadata !394, i32 0, i32 0} ; [ DW_TAG_subroutine_type ]
!394 = metadata !{null, metadata !395}
!395 = metadata !{i32 786447, i32 0, metadata !"", i32 0, i32 0, i64 64, i64 64, i64 0, i32 64, metadata !378} ; [ DW_TAG_pointer_type ]
!396 = metadata !{i32 786478, i32 0, metadata !378, metadata !"ap_int_base", metadata !"ap_int_base", metadata !"", metadata !142, i32 1516, metadata !397, i1 false, i1 false, i32 0, i32 0, null, i32 384, i1 false, null, null, i32 0, metadata !121, i32 1516} ; [ DW_TAG_subprogram ]
!397 = metadata !{i32 786453, i32 0, metadata !"", i32 0, i32 0, i64 0, i64 0, i64 0, i32 0, null, metadata !398, i32 0, i32 0} ; [ DW_TAG_subroutine_type ]
!398 = metadata !{null, metadata !395, metadata !158}
!399 = metadata !{i32 786478, i32 0, metadata !378, metadata !"ap_int_base", metadata !"ap_int_base", metadata !"", metadata !142, i32 1517, metadata !400, i1 false, i1 false, i32 0, i32 0, null, i32 384, i1 false, null, null, i32 0, metadata !121, i32 1517} ; [ DW_TAG_subprogram ]
!400 = metadata !{i32 786453, i32 0, metadata !"", i32 0, i32 0, i64 0, i64 0, i64 0, i32 0, null, metadata !401, i32 0, i32 0} ; [ DW_TAG_subroutine_type ]
!401 = metadata !{null, metadata !395, metadata !183}
!402 = metadata !{i32 786478, i32 0, metadata !378, metadata !"ap_int_base", metadata !"ap_int_base", metadata !"", metadata !142, i32 1518, metadata !403, i1 false, i1 false, i32 0, i32 0, null, i32 384, i1 false, null, null, i32 0, metadata !121, i32 1518} ; [ DW_TAG_subprogram ]
!403 = metadata !{i32 786453, i32 0, metadata !"", i32 0, i32 0, i64 0, i64 0, i64 0, i32 0, null, metadata !404, i32 0, i32 0} ; [ DW_TAG_subroutine_type ]
!404 = metadata !{null, metadata !395, metadata !187}
!405 = metadata !{i32 786478, i32 0, metadata !378, metadata !"ap_int_base", metadata !"ap_int_base", metadata !"", metadata !142, i32 1519, metadata !406, i1 false, i1 false, i32 0, i32 0, null, i32 384, i1 false, null, null, i32 0, metadata !121, i32 1519} ; [ DW_TAG_subprogram ]
!406 = metadata !{i32 786453, i32 0, metadata !"", i32 0, i32 0, i64 0, i64 0, i64 0, i32 0, null, metadata !407, i32 0, i32 0} ; [ DW_TAG_subroutine_type ]
!407 = metadata !{null, metadata !395, metadata !191}
!408 = metadata !{i32 786478, i32 0, metadata !378, metadata !"ap_int_base", metadata !"ap_int_base", metadata !"", metadata !142, i32 1520, metadata !409, i1 false, i1 false, i32 0, i32 0, null, i32 384, i1 false, null, null, i32 0, metadata !121, i32 1520} ; [ DW_TAG_subprogram ]
!409 = metadata !{i32 786453, i32 0, metadata !"", i32 0, i32 0, i64 0, i64 0, i64 0, i32 0, null, metadata !410, i32 0, i32 0} ; [ DW_TAG_subroutine_type ]
!410 = metadata !{null, metadata !395, metadata !195}
!411 = metadata !{i32 786478, i32 0, metadata !378, metadata !"ap_int_base", metadata !"ap_int_base", metadata !"", metadata !142, i32 1521, metadata !412, i1 false, i1 false, i32 0, i32 0, null, i32 384, i1 false, null, null, i32 0, metadata !121, i32 1521} ; [ DW_TAG_subprogram ]
!412 = metadata !{i32 786453, i32 0, metadata !"", i32 0, i32 0, i64 0, i64 0, i64 0, i32 0, null, metadata !413, i32 0, i32 0} ; [ DW_TAG_subroutine_type ]
!413 = metadata !{null, metadata !395, metadata !156}
!414 = metadata !{i32 786478, i32 0, metadata !378, metadata !"ap_int_base", metadata !"ap_int_base", metadata !"", metadata !142, i32 1522, metadata !415, i1 false, i1 false, i32 0, i32 0, null, i32 384, i1 false, null, null, i32 0, metadata !121, i32 1522} ; [ DW_TAG_subprogram ]
!415 = metadata !{i32 786453, i32 0, metadata !"", i32 0, i32 0, i64 0, i64 0, i64 0, i32 0, null, metadata !416, i32 0, i32 0} ; [ DW_TAG_subroutine_type ]
!416 = metadata !{null, metadata !395, metadata !202}
!417 = metadata !{i32 786478, i32 0, metadata !378, metadata !"ap_int_base", metadata !"ap_int_base", metadata !"", metadata !142, i32 1523, metadata !418, i1 false, i1 false, i32 0, i32 0, null, i32 384, i1 false, null, null, i32 0, metadata !121, i32 1523} ; [ DW_TAG_subprogram ]
!418 = metadata !{i32 786453, i32 0, metadata !"", i32 0, i32 0, i64 0, i64 0, i64 0, i32 0, null, metadata !419, i32 0, i32 0} ; [ DW_TAG_subroutine_type ]
!419 = metadata !{null, metadata !395, metadata !206}
!420 = metadata !{i32 786478, i32 0, metadata !378, metadata !"ap_int_base", metadata !"ap_int_base", metadata !"", metadata !142, i32 1524, metadata !421, i1 false, i1 false, i32 0, i32 0, null, i32 384, i1 false, null, null, i32 0, metadata !121, i32 1524} ; [ DW_TAG_subprogram ]
!421 = metadata !{i32 786453, i32 0, metadata !"", i32 0, i32 0, i64 0, i64 0, i64 0, i32 0, null, metadata !422, i32 0, i32 0} ; [ DW_TAG_subroutine_type ]
!422 = metadata !{null, metadata !395, metadata !210}
!423 = metadata !{i32 786478, i32 0, metadata !378, metadata !"ap_int_base", metadata !"ap_int_base", metadata !"", metadata !142, i32 1525, metadata !424, i1 false, i1 false, i32 0, i32 0, null, i32 384, i1 false, null, null, i32 0, metadata !121, i32 1525} ; [ DW_TAG_subprogram ]
!424 = metadata !{i32 786453, i32 0, metadata !"", i32 0, i32 0, i64 0, i64 0, i64 0, i32 0, null, metadata !425, i32 0, i32 0} ; [ DW_TAG_subroutine_type ]
!425 = metadata !{null, metadata !395, metadata !214}
!426 = metadata !{i32 786478, i32 0, metadata !378, metadata !"ap_int_base", metadata !"ap_int_base", metadata !"", metadata !142, i32 1526, metadata !427, i1 false, i1 false, i32 0, i32 0, null, i32 384, i1 false, null, null, i32 0, metadata !121, i32 1526} ; [ DW_TAG_subprogram ]
!427 = metadata !{i32 786453, i32 0, metadata !"", i32 0, i32 0, i64 0, i64 0, i64 0, i32 0, null, metadata !428, i32 0, i32 0} ; [ DW_TAG_subroutine_type ]
!428 = metadata !{null, metadata !395, metadata !219}
!429 = metadata !{i32 786478, i32 0, metadata !378, metadata !"ap_int_base", metadata !"ap_int_base", metadata !"", metadata !142, i32 1527, metadata !430, i1 false, i1 false, i32 0, i32 0, null, i32 384, i1 false, null, null, i32 0, metadata !121, i32 1527} ; [ DW_TAG_subprogram ]
!430 = metadata !{i32 786453, i32 0, metadata !"", i32 0, i32 0, i64 0, i64 0, i64 0, i32 0, null, metadata !431, i32 0, i32 0} ; [ DW_TAG_subroutine_type ]
!431 = metadata !{null, metadata !395, metadata !224}
!432 = metadata !{i32 786478, i32 0, metadata !378, metadata !"ap_int_base", metadata !"ap_int_base", metadata !"", metadata !142, i32 1528, metadata !433, i1 false, i1 false, i32 0, i32 0, null, i32 384, i1 false, null, null, i32 0, metadata !121, i32 1528} ; [ DW_TAG_subprogram ]
!433 = metadata !{i32 786453, i32 0, metadata !"", i32 0, i32 0, i64 0, i64 0, i64 0, i32 0, null, metadata !434, i32 0, i32 0} ; [ DW_TAG_subroutine_type ]
!434 = metadata !{null, metadata !395, metadata !229}
!435 = metadata !{i32 786478, i32 0, metadata !378, metadata !"ap_int_base", metadata !"ap_int_base", metadata !"", metadata !142, i32 1529, metadata !436, i1 false, i1 false, i32 0, i32 0, null, i32 384, i1 false, null, null, i32 0, metadata !121, i32 1529} ; [ DW_TAG_subprogram ]
!436 = metadata !{i32 786453, i32 0, metadata !"", i32 0, i32 0, i64 0, i64 0, i64 0, i32 0, null, metadata !437, i32 0, i32 0} ; [ DW_TAG_subroutine_type ]
!437 = metadata !{null, metadata !395, metadata !233}
!438 = metadata !{i32 786478, i32 0, metadata !378, metadata !"ap_int_base", metadata !"ap_int_base", metadata !"", metadata !142, i32 1556, metadata !439, i1 false, i1 false, i32 0, i32 0, null, i32 256, i1 false, null, null, i32 0, metadata !121, i32 1556} ; [ DW_TAG_subprogram ]
!439 = metadata !{i32 786453, i32 0, metadata !"", i32 0, i32 0, i64 0, i64 0, i64 0, i32 0, null, metadata !440, i32 0, i32 0} ; [ DW_TAG_subroutine_type ]
!440 = metadata !{null, metadata !395, metadata !237}
!441 = metadata !{i32 786478, i32 0, metadata !378, metadata !"ap_int_base", metadata !"ap_int_base", metadata !"", metadata !142, i32 1563, metadata !442, i1 false, i1 false, i32 0, i32 0, null, i32 256, i1 false, null, null, i32 0, metadata !121, i32 1563} ; [ DW_TAG_subprogram ]
!442 = metadata !{i32 786453, i32 0, metadata !"", i32 0, i32 0, i64 0, i64 0, i64 0, i32 0, null, metadata !443, i32 0, i32 0} ; [ DW_TAG_subroutine_type ]
!443 = metadata !{null, metadata !395, metadata !237, metadata !183}
!444 = metadata !{i32 786478, i32 0, metadata !378, metadata !"read", metadata !"read", metadata !"_ZNV11ap_int_baseILi11ELb1ELb1EE4readEv", metadata !142, i32 1584, metadata !445, i1 false, i1 false, i32 0, i32 0, null, i32 256, i1 false, null, null, i32 0, metadata !121, i32 1584} ; [ DW_TAG_subprogram ]
!445 = metadata !{i32 786453, i32 0, metadata !"", i32 0, i32 0, i64 0, i64 0, i64 0, i32 0, null, metadata !446, i32 0, i32 0} ; [ DW_TAG_subroutine_type ]
!446 = metadata !{metadata !378, metadata !447}
!447 = metadata !{i32 786447, i32 0, metadata !"", i32 0, i32 0, i64 64, i64 64, i64 0, i32 64, metadata !448} ; [ DW_TAG_pointer_type ]
!448 = metadata !{i32 786485, null, metadata !"", null, i32 0, i64 0, i64 0, i64 0, i32 0, metadata !378} ; [ DW_TAG_volatile_type ]
!449 = metadata !{i32 786478, i32 0, metadata !378, metadata !"write", metadata !"write", metadata !"_ZNV11ap_int_baseILi11ELb1ELb1EE5writeERKS0_", metadata !142, i32 1590, metadata !450, i1 false, i1 false, i32 0, i32 0, null, i32 256, i1 false, null, null, i32 0, metadata !121, i32 1590} ; [ DW_TAG_subprogram ]
!450 = metadata !{i32 786453, i32 0, metadata !"", i32 0, i32 0, i64 0, i64 0, i64 0, i32 0, null, metadata !451, i32 0, i32 0} ; [ DW_TAG_subroutine_type ]
!451 = metadata !{null, metadata !447, metadata !452}
!452 = metadata !{i32 786448, null, null, null, i32 0, i64 0, i64 0, i64 0, i32 0, metadata !453} ; [ DW_TAG_reference_type ]
!453 = metadata !{i32 786470, null, metadata !"", null, i32 0, i64 0, i64 0, i64 0, i32 0, metadata !378} ; [ DW_TAG_const_type ]
!454 = metadata !{i32 786478, i32 0, metadata !378, metadata !"operator=", metadata !"operator=", metadata !"_ZNV11ap_int_baseILi11ELb1ELb1EEaSERVKS0_", metadata !142, i32 1602, metadata !455, i1 false, i1 false, i32 0, i32 0, null, i32 256, i1 false, null, null, i32 0, metadata !121, i32 1602} ; [ DW_TAG_subprogram ]
!455 = metadata !{i32 786453, i32 0, metadata !"", i32 0, i32 0, i64 0, i64 0, i64 0, i32 0, null, metadata !456, i32 0, i32 0} ; [ DW_TAG_subroutine_type ]
!456 = metadata !{null, metadata !447, metadata !457}
!457 = metadata !{i32 786448, null, null, null, i32 0, i64 0, i64 0, i64 0, i32 0, metadata !458} ; [ DW_TAG_reference_type ]
!458 = metadata !{i32 786470, null, metadata !"", null, i32 0, i64 0, i64 0, i64 0, i32 0, metadata !448} ; [ DW_TAG_const_type ]
!459 = metadata !{i32 786478, i32 0, metadata !378, metadata !"operator=", metadata !"operator=", metadata !"_ZNV11ap_int_baseILi11ELb1ELb1EEaSERKS0_", metadata !142, i32 1611, metadata !450, i1 false, i1 false, i32 0, i32 0, null, i32 256, i1 false, null, null, i32 0, metadata !121, i32 1611} ; [ DW_TAG_subprogram ]
!460 = metadata !{i32 786478, i32 0, metadata !378, metadata !"operator=", metadata !"operator=", metadata !"_ZN11ap_int_baseILi11ELb1ELb1EEaSERVKS0_", metadata !142, i32 1634, metadata !461, i1 false, i1 false, i32 0, i32 0, null, i32 256, i1 false, null, null, i32 0, metadata !121, i32 1634} ; [ DW_TAG_subprogram ]
!461 = metadata !{i32 786453, i32 0, metadata !"", i32 0, i32 0, i64 0, i64 0, i64 0, i32 0, null, metadata !462, i32 0, i32 0} ; [ DW_TAG_subroutine_type ]
!462 = metadata !{metadata !463, metadata !395, metadata !457}
!463 = metadata !{i32 786448, null, null, null, i32 0, i64 0, i64 0, i64 0, i32 0, metadata !378} ; [ DW_TAG_reference_type ]
!464 = metadata !{i32 786478, i32 0, metadata !378, metadata !"operator=", metadata !"operator=", metadata !"_ZN11ap_int_baseILi11ELb1ELb1EEaSERKS0_", metadata !142, i32 1639, metadata !465, i1 false, i1 false, i32 0, i32 0, null, i32 256, i1 false, null, null, i32 0, metadata !121, i32 1639} ; [ DW_TAG_subprogram ]
!465 = metadata !{i32 786453, i32 0, metadata !"", i32 0, i32 0, i64 0, i64 0, i64 0, i32 0, null, metadata !466, i32 0, i32 0} ; [ DW_TAG_subroutine_type ]
!466 = metadata !{metadata !463, metadata !395, metadata !452}
!467 = metadata !{i32 786478, i32 0, metadata !378, metadata !"operator=", metadata !"operator=", metadata !"_ZN11ap_int_baseILi11ELb1ELb1EEaSEPKc", metadata !142, i32 1643, metadata !468, i1 false, i1 false, i32 0, i32 0, null, i32 256, i1 false, null, null, i32 0, metadata !121, i32 1643} ; [ DW_TAG_subprogram ]
!468 = metadata !{i32 786453, i32 0, metadata !"", i32 0, i32 0, i64 0, i64 0, i64 0, i32 0, null, metadata !469, i32 0, i32 0} ; [ DW_TAG_subroutine_type ]
!469 = metadata !{metadata !463, metadata !395, metadata !237}
!470 = metadata !{i32 786478, i32 0, metadata !378, metadata !"set", metadata !"set", metadata !"_ZN11ap_int_baseILi11ELb1ELb1EE3setEPKca", metadata !142, i32 1651, metadata !471, i1 false, i1 false, i32 0, i32 0, null, i32 256, i1 false, null, null, i32 0, metadata !121, i32 1651} ; [ DW_TAG_subprogram ]
!471 = metadata !{i32 786453, i32 0, metadata !"", i32 0, i32 0, i64 0, i64 0, i64 0, i32 0, null, metadata !472, i32 0, i32 0} ; [ DW_TAG_subroutine_type ]
!472 = metadata !{metadata !463, metadata !395, metadata !237, metadata !183}
!473 = metadata !{i32 786478, i32 0, metadata !378, metadata !"operator=", metadata !"operator=", metadata !"_ZN11ap_int_baseILi11ELb1ELb1EEaSEa", metadata !142, i32 1665, metadata !474, i1 false, i1 false, i32 0, i32 0, null, i32 256, i1 false, null, null, i32 0, metadata !121, i32 1665} ; [ DW_TAG_subprogram ]
!474 = metadata !{i32 786453, i32 0, metadata !"", i32 0, i32 0, i64 0, i64 0, i64 0, i32 0, null, metadata !475, i32 0, i32 0} ; [ DW_TAG_subroutine_type ]
!475 = metadata !{metadata !463, metadata !395, metadata !183}
!476 = metadata !{i32 786478, i32 0, metadata !378, metadata !"operator=", metadata !"operator=", metadata !"_ZN11ap_int_baseILi11ELb1ELb1EEaSEh", metadata !142, i32 1666, metadata !477, i1 false, i1 false, i32 0, i32 0, null, i32 256, i1 false, null, null, i32 0, metadata !121, i32 1666} ; [ DW_TAG_subprogram ]
!477 = metadata !{i32 786453, i32 0, metadata !"", i32 0, i32 0, i64 0, i64 0, i64 0, i32 0, null, metadata !478, i32 0, i32 0} ; [ DW_TAG_subroutine_type ]
!478 = metadata !{metadata !463, metadata !395, metadata !187}
!479 = metadata !{i32 786478, i32 0, metadata !378, metadata !"operator=", metadata !"operator=", metadata !"_ZN11ap_int_baseILi11ELb1ELb1EEaSEs", metadata !142, i32 1667, metadata !480, i1 false, i1 false, i32 0, i32 0, null, i32 256, i1 false, null, null, i32 0, metadata !121, i32 1667} ; [ DW_TAG_subprogram ]
!480 = metadata !{i32 786453, i32 0, metadata !"", i32 0, i32 0, i64 0, i64 0, i64 0, i32 0, null, metadata !481, i32 0, i32 0} ; [ DW_TAG_subroutine_type ]
!481 = metadata !{metadata !463, metadata !395, metadata !191}
!482 = metadata !{i32 786478, i32 0, metadata !378, metadata !"operator=", metadata !"operator=", metadata !"_ZN11ap_int_baseILi11ELb1ELb1EEaSEt", metadata !142, i32 1668, metadata !483, i1 false, i1 false, i32 0, i32 0, null, i32 256, i1 false, null, null, i32 0, metadata !121, i32 1668} ; [ DW_TAG_subprogram ]
!483 = metadata !{i32 786453, i32 0, metadata !"", i32 0, i32 0, i64 0, i64 0, i64 0, i32 0, null, metadata !484, i32 0, i32 0} ; [ DW_TAG_subroutine_type ]
!484 = metadata !{metadata !463, metadata !395, metadata !195}
!485 = metadata !{i32 786478, i32 0, metadata !378, metadata !"operator=", metadata !"operator=", metadata !"_ZN11ap_int_baseILi11ELb1ELb1EEaSEi", metadata !142, i32 1669, metadata !486, i1 false, i1 false, i32 0, i32 0, null, i32 256, i1 false, null, null, i32 0, metadata !121, i32 1669} ; [ DW_TAG_subprogram ]
!486 = metadata !{i32 786453, i32 0, metadata !"", i32 0, i32 0, i64 0, i64 0, i64 0, i32 0, null, metadata !487, i32 0, i32 0} ; [ DW_TAG_subroutine_type ]
!487 = metadata !{metadata !463, metadata !395, metadata !156}
!488 = metadata !{i32 786478, i32 0, metadata !378, metadata !"operator=", metadata !"operator=", metadata !"_ZN11ap_int_baseILi11ELb1ELb1EEaSEj", metadata !142, i32 1670, metadata !489, i1 false, i1 false, i32 0, i32 0, null, i32 256, i1 false, null, null, i32 0, metadata !121, i32 1670} ; [ DW_TAG_subprogram ]
!489 = metadata !{i32 786453, i32 0, metadata !"", i32 0, i32 0, i64 0, i64 0, i64 0, i32 0, null, metadata !490, i32 0, i32 0} ; [ DW_TAG_subroutine_type ]
!490 = metadata !{metadata !463, metadata !395, metadata !202}
!491 = metadata !{i32 786478, i32 0, metadata !378, metadata !"operator=", metadata !"operator=", metadata !"_ZN11ap_int_baseILi11ELb1ELb1EEaSEx", metadata !142, i32 1671, metadata !492, i1 false, i1 false, i32 0, i32 0, null, i32 256, i1 false, null, null, i32 0, metadata !121, i32 1671} ; [ DW_TAG_subprogram ]
!492 = metadata !{i32 786453, i32 0, metadata !"", i32 0, i32 0, i64 0, i64 0, i64 0, i32 0, null, metadata !493, i32 0, i32 0} ; [ DW_TAG_subroutine_type ]
!493 = metadata !{metadata !463, metadata !395, metadata !214}
!494 = metadata !{i32 786478, i32 0, metadata !378, metadata !"operator=", metadata !"operator=", metadata !"_ZN11ap_int_baseILi11ELb1ELb1EEaSEy", metadata !142, i32 1672, metadata !495, i1 false, i1 false, i32 0, i32 0, null, i32 256, i1 false, null, null, i32 0, metadata !121, i32 1672} ; [ DW_TAG_subprogram ]
!495 = metadata !{i32 786453, i32 0, metadata !"", i32 0, i32 0, i64 0, i64 0, i64 0, i32 0, null, metadata !496, i32 0, i32 0} ; [ DW_TAG_subroutine_type ]
!496 = metadata !{metadata !463, metadata !395, metadata !219}
!497 = metadata !{i32 786478, i32 0, metadata !378, metadata !"operator short", metadata !"operator short", metadata !"_ZNK11ap_int_baseILi11ELb1ELb1EEcvsEv", metadata !142, i32 1710, metadata !498, i1 false, i1 false, i32 0, i32 0, null, i32 256, i1 false, null, null, i32 0, metadata !121, i32 1710} ; [ DW_TAG_subprogram ]
!498 = metadata !{i32 786453, i32 0, metadata !"", i32 0, i32 0, i64 0, i64 0, i64 0, i32 0, null, metadata !499, i32 0, i32 0} ; [ DW_TAG_subroutine_type ]
!499 = metadata !{metadata !500, metadata !504}
!500 = metadata !{i32 786454, metadata !378, metadata !"RetType", metadata !142, i32 1458, i64 0, i64 0, i64 0, i32 0, metadata !501} ; [ DW_TAG_typedef ]
!501 = metadata !{i32 786454, metadata !502, metadata !"Type", metadata !142, i32 1429, i64 0, i64 0, i64 0, i32 0, metadata !191} ; [ DW_TAG_typedef ]
!502 = metadata !{i32 786434, null, metadata !"retval<2, true>", metadata !142, i32 1428, i64 8, i64 8, i32 0, i32 0, null, metadata !297, i32 0, null, metadata !503} ; [ DW_TAG_class_type ]
!503 = metadata !{metadata !299, metadata !391}
!504 = metadata !{i32 786447, i32 0, metadata !"", i32 0, i32 0, i64 64, i64 64, i64 0, i32 64, metadata !453} ; [ DW_TAG_pointer_type ]
!505 = metadata !{i32 786478, i32 0, metadata !378, metadata !"to_bool", metadata !"to_bool", metadata !"_ZNK11ap_int_baseILi11ELb1ELb1EE7to_boolEv", metadata !142, i32 1716, metadata !506, i1 false, i1 false, i32 0, i32 0, null, i32 256, i1 false, null, null, i32 0, metadata !121, i32 1716} ; [ DW_TAG_subprogram ]
!506 = metadata !{i32 786453, i32 0, metadata !"", i32 0, i32 0, i64 0, i64 0, i64 0, i32 0, null, metadata !507, i32 0, i32 0} ; [ DW_TAG_subroutine_type ]
!507 = metadata !{metadata !158, metadata !504}
!508 = metadata !{i32 786478, i32 0, metadata !378, metadata !"to_uchar", metadata !"to_uchar", metadata !"_ZNK11ap_int_baseILi11ELb1ELb1EE8to_ucharEv", metadata !142, i32 1717, metadata !509, i1 false, i1 false, i32 0, i32 0, null, i32 256, i1 false, null, null, i32 0, metadata !121, i32 1717} ; [ DW_TAG_subprogram ]
!509 = metadata !{i32 786453, i32 0, metadata !"", i32 0, i32 0, i64 0, i64 0, i64 0, i32 0, null, metadata !510, i32 0, i32 0} ; [ DW_TAG_subroutine_type ]
!510 = metadata !{metadata !187, metadata !504}
!511 = metadata !{i32 786478, i32 0, metadata !378, metadata !"to_char", metadata !"to_char", metadata !"_ZNK11ap_int_baseILi11ELb1ELb1EE7to_charEv", metadata !142, i32 1718, metadata !512, i1 false, i1 false, i32 0, i32 0, null, i32 256, i1 false, null, null, i32 0, metadata !121, i32 1718} ; [ DW_TAG_subprogram ]
!512 = metadata !{i32 786453, i32 0, metadata !"", i32 0, i32 0, i64 0, i64 0, i64 0, i32 0, null, metadata !513, i32 0, i32 0} ; [ DW_TAG_subroutine_type ]
!513 = metadata !{metadata !183, metadata !504}
!514 = metadata !{i32 786478, i32 0, metadata !378, metadata !"to_ushort", metadata !"to_ushort", metadata !"_ZNK11ap_int_baseILi11ELb1ELb1EE9to_ushortEv", metadata !142, i32 1719, metadata !515, i1 false, i1 false, i32 0, i32 0, null, i32 256, i1 false, null, null, i32 0, metadata !121, i32 1719} ; [ DW_TAG_subprogram ]
!515 = metadata !{i32 786453, i32 0, metadata !"", i32 0, i32 0, i64 0, i64 0, i64 0, i32 0, null, metadata !516, i32 0, i32 0} ; [ DW_TAG_subroutine_type ]
!516 = metadata !{metadata !195, metadata !504}
!517 = metadata !{i32 786478, i32 0, metadata !378, metadata !"to_short", metadata !"to_short", metadata !"_ZNK11ap_int_baseILi11ELb1ELb1EE8to_shortEv", metadata !142, i32 1720, metadata !518, i1 false, i1 false, i32 0, i32 0, null, i32 256, i1 false, null, null, i32 0, metadata !121, i32 1720} ; [ DW_TAG_subprogram ]
!518 = metadata !{i32 786453, i32 0, metadata !"", i32 0, i32 0, i64 0, i64 0, i64 0, i32 0, null, metadata !519, i32 0, i32 0} ; [ DW_TAG_subroutine_type ]
!519 = metadata !{metadata !191, metadata !504}
!520 = metadata !{i32 786478, i32 0, metadata !378, metadata !"to_int", metadata !"to_int", metadata !"_ZNK11ap_int_baseILi11ELb1ELb1EE6to_intEv", metadata !142, i32 1721, metadata !521, i1 false, i1 false, i32 0, i32 0, null, i32 256, i1 false, null, null, i32 0, metadata !121, i32 1721} ; [ DW_TAG_subprogram ]
!521 = metadata !{i32 786453, i32 0, metadata !"", i32 0, i32 0, i64 0, i64 0, i64 0, i32 0, null, metadata !522, i32 0, i32 0} ; [ DW_TAG_subroutine_type ]
!522 = metadata !{metadata !156, metadata !504}
!523 = metadata !{i32 786478, i32 0, metadata !378, metadata !"to_uint", metadata !"to_uint", metadata !"_ZNK11ap_int_baseILi11ELb1ELb1EE7to_uintEv", metadata !142, i32 1722, metadata !524, i1 false, i1 false, i32 0, i32 0, null, i32 256, i1 false, null, null, i32 0, metadata !121, i32 1722} ; [ DW_TAG_subprogram ]
!524 = metadata !{i32 786453, i32 0, metadata !"", i32 0, i32 0, i64 0, i64 0, i64 0, i32 0, null, metadata !525, i32 0, i32 0} ; [ DW_TAG_subroutine_type ]
!525 = metadata !{metadata !202, metadata !504}
!526 = metadata !{i32 786478, i32 0, metadata !378, metadata !"to_long", metadata !"to_long", metadata !"_ZNK11ap_int_baseILi11ELb1ELb1EE7to_longEv", metadata !142, i32 1723, metadata !527, i1 false, i1 false, i32 0, i32 0, null, i32 256, i1 false, null, null, i32 0, metadata !121, i32 1723} ; [ DW_TAG_subprogram ]
!527 = metadata !{i32 786453, i32 0, metadata !"", i32 0, i32 0, i64 0, i64 0, i64 0, i32 0, null, metadata !528, i32 0, i32 0} ; [ DW_TAG_subroutine_type ]
!528 = metadata !{metadata !206, metadata !504}
!529 = metadata !{i32 786478, i32 0, metadata !378, metadata !"to_ulong", metadata !"to_ulong", metadata !"_ZNK11ap_int_baseILi11ELb1ELb1EE8to_ulongEv", metadata !142, i32 1724, metadata !530, i1 false, i1 false, i32 0, i32 0, null, i32 256, i1 false, null, null, i32 0, metadata !121, i32 1724} ; [ DW_TAG_subprogram ]
!530 = metadata !{i32 786453, i32 0, metadata !"", i32 0, i32 0, i64 0, i64 0, i64 0, i32 0, null, metadata !531, i32 0, i32 0} ; [ DW_TAG_subroutine_type ]
!531 = metadata !{metadata !210, metadata !504}
!532 = metadata !{i32 786478, i32 0, metadata !378, metadata !"to_int64", metadata !"to_int64", metadata !"_ZNK11ap_int_baseILi11ELb1ELb1EE8to_int64Ev", metadata !142, i32 1725, metadata !533, i1 false, i1 false, i32 0, i32 0, null, i32 256, i1 false, null, null, i32 0, metadata !121, i32 1725} ; [ DW_TAG_subprogram ]
!533 = metadata !{i32 786453, i32 0, metadata !"", i32 0, i32 0, i64 0, i64 0, i64 0, i32 0, null, metadata !534, i32 0, i32 0} ; [ DW_TAG_subroutine_type ]
!534 = metadata !{metadata !214, metadata !504}
!535 = metadata !{i32 786478, i32 0, metadata !378, metadata !"to_uint64", metadata !"to_uint64", metadata !"_ZNK11ap_int_baseILi11ELb1ELb1EE9to_uint64Ev", metadata !142, i32 1726, metadata !536, i1 false, i1 false, i32 0, i32 0, null, i32 256, i1 false, null, null, i32 0, metadata !121, i32 1726} ; [ DW_TAG_subprogram ]
!536 = metadata !{i32 786453, i32 0, metadata !"", i32 0, i32 0, i64 0, i64 0, i64 0, i32 0, null, metadata !537, i32 0, i32 0} ; [ DW_TAG_subroutine_type ]
!537 = metadata !{metadata !219, metadata !504}
!538 = metadata !{i32 786478, i32 0, metadata !378, metadata !"to_double", metadata !"to_double", metadata !"_ZNK11ap_int_baseILi11ELb1ELb1EE9to_doubleEv", metadata !142, i32 1727, metadata !539, i1 false, i1 false, i32 0, i32 0, null, i32 256, i1 false, null, null, i32 0, metadata !121, i32 1727} ; [ DW_TAG_subprogram ]
!539 = metadata !{i32 786453, i32 0, metadata !"", i32 0, i32 0, i64 0, i64 0, i64 0, i32 0, null, metadata !540, i32 0, i32 0} ; [ DW_TAG_subroutine_type ]
!540 = metadata !{metadata !233, metadata !504}
!541 = metadata !{i32 786478, i32 0, metadata !378, metadata !"length", metadata !"length", metadata !"_ZNK11ap_int_baseILi11ELb1ELb1EE6lengthEv", metadata !142, i32 1741, metadata !521, i1 false, i1 false, i32 0, i32 0, null, i32 256, i1 false, null, null, i32 0, metadata !121, i32 1741} ; [ DW_TAG_subprogram ]
!542 = metadata !{i32 786478, i32 0, metadata !378, metadata !"length", metadata !"length", metadata !"_ZNVK11ap_int_baseILi11ELb1ELb1EE6lengthEv", metadata !142, i32 1742, metadata !543, i1 false, i1 false, i32 0, i32 0, null, i32 256, i1 false, null, null, i32 0, metadata !121, i32 1742} ; [ DW_TAG_subprogram ]
!543 = metadata !{i32 786453, i32 0, metadata !"", i32 0, i32 0, i64 0, i64 0, i64 0, i32 0, null, metadata !544, i32 0, i32 0} ; [ DW_TAG_subroutine_type ]
!544 = metadata !{metadata !156, metadata !545}
!545 = metadata !{i32 786447, i32 0, metadata !"", i32 0, i32 0, i64 64, i64 64, i64 0, i32 64, metadata !458} ; [ DW_TAG_pointer_type ]
!546 = metadata !{i32 786478, i32 0, metadata !378, metadata !"reverse", metadata !"reverse", metadata !"_ZN11ap_int_baseILi11ELb1ELb1EE7reverseEv", metadata !142, i32 1747, metadata !547, i1 false, i1 false, i32 0, i32 0, null, i32 256, i1 false, null, null, i32 0, metadata !121, i32 1747} ; [ DW_TAG_subprogram ]
!547 = metadata !{i32 786453, i32 0, metadata !"", i32 0, i32 0, i64 0, i64 0, i64 0, i32 0, null, metadata !548, i32 0, i32 0} ; [ DW_TAG_subroutine_type ]
!548 = metadata !{metadata !463, metadata !395}
!549 = metadata !{i32 786478, i32 0, metadata !378, metadata !"iszero", metadata !"iszero", metadata !"_ZNK11ap_int_baseILi11ELb1ELb1EE6iszeroEv", metadata !142, i32 1753, metadata !506, i1 false, i1 false, i32 0, i32 0, null, i32 256, i1 false, null, null, i32 0, metadata !121, i32 1753} ; [ DW_TAG_subprogram ]
!550 = metadata !{i32 786478, i32 0, metadata !378, metadata !"is_zero", metadata !"is_zero", metadata !"_ZNK11ap_int_baseILi11ELb1ELb1EE7is_zeroEv", metadata !142, i32 1758, metadata !506, i1 false, i1 false, i32 0, i32 0, null, i32 256, i1 false, null, null, i32 0, metadata !121, i32 1758} ; [ DW_TAG_subprogram ]
!551 = metadata !{i32 786478, i32 0, metadata !378, metadata !"sign", metadata !"sign", metadata !"_ZNK11ap_int_baseILi11ELb1ELb1EE4signEv", metadata !142, i32 1763, metadata !506, i1 false, i1 false, i32 0, i32 0, null, i32 256, i1 false, null, null, i32 0, metadata !121, i32 1763} ; [ DW_TAG_subprogram ]
!552 = metadata !{i32 786478, i32 0, metadata !378, metadata !"clear", metadata !"clear", metadata !"_ZN11ap_int_baseILi11ELb1ELb1EE5clearEi", metadata !142, i32 1771, metadata !412, i1 false, i1 false, i32 0, i32 0, null, i32 256, i1 false, null, null, i32 0, metadata !121, i32 1771} ; [ DW_TAG_subprogram ]
!553 = metadata !{i32 786478, i32 0, metadata !378, metadata !"invert", metadata !"invert", metadata !"_ZN11ap_int_baseILi11ELb1ELb1EE6invertEi", metadata !142, i32 1777, metadata !412, i1 false, i1 false, i32 0, i32 0, null, i32 256, i1 false, null, null, i32 0, metadata !121, i32 1777} ; [ DW_TAG_subprogram ]
!554 = metadata !{i32 786478, i32 0, metadata !378, metadata !"test", metadata !"test", metadata !"_ZNK11ap_int_baseILi11ELb1ELb1EE4testEi", metadata !142, i32 1785, metadata !555, i1 false, i1 false, i32 0, i32 0, null, i32 256, i1 false, null, null, i32 0, metadata !121, i32 1785} ; [ DW_TAG_subprogram ]
!555 = metadata !{i32 786453, i32 0, metadata !"", i32 0, i32 0, i64 0, i64 0, i64 0, i32 0, null, metadata !556, i32 0, i32 0} ; [ DW_TAG_subroutine_type ]
!556 = metadata !{metadata !158, metadata !504, metadata !156}
!557 = metadata !{i32 786478, i32 0, metadata !378, metadata !"set", metadata !"set", metadata !"_ZN11ap_int_baseILi11ELb1ELb1EE3setEi", metadata !142, i32 1791, metadata !412, i1 false, i1 false, i32 0, i32 0, null, i32 256, i1 false, null, null, i32 0, metadata !121, i32 1791} ; [ DW_TAG_subprogram ]
!558 = metadata !{i32 786478, i32 0, metadata !378, metadata !"set", metadata !"set", metadata !"_ZN11ap_int_baseILi11ELb1ELb1EE3setEib", metadata !142, i32 1797, metadata !559, i1 false, i1 false, i32 0, i32 0, null, i32 256, i1 false, null, null, i32 0, metadata !121, i32 1797} ; [ DW_TAG_subprogram ]
!559 = metadata !{i32 786453, i32 0, metadata !"", i32 0, i32 0, i64 0, i64 0, i64 0, i32 0, null, metadata !560, i32 0, i32 0} ; [ DW_TAG_subroutine_type ]
!560 = metadata !{null, metadata !395, metadata !156, metadata !158}
!561 = metadata !{i32 786478, i32 0, metadata !378, metadata !"lrotate", metadata !"lrotate", metadata !"_ZN11ap_int_baseILi11ELb1ELb1EE7lrotateEi", metadata !142, i32 1804, metadata !412, i1 false, i1 false, i32 0, i32 0, null, i32 256, i1 false, null, null, i32 0, metadata !121, i32 1804} ; [ DW_TAG_subprogram ]
!562 = metadata !{i32 786478, i32 0, metadata !378, metadata !"rrotate", metadata !"rrotate", metadata !"_ZN11ap_int_baseILi11ELb1ELb1EE7rrotateEi", metadata !142, i32 1813, metadata !412, i1 false, i1 false, i32 0, i32 0, null, i32 256, i1 false, null, null, i32 0, metadata !121, i32 1813} ; [ DW_TAG_subprogram ]
!563 = metadata !{i32 786478, i32 0, metadata !378, metadata !"set_bit", metadata !"set_bit", metadata !"_ZN11ap_int_baseILi11ELb1ELb1EE7set_bitEib", metadata !142, i32 1821, metadata !559, i1 false, i1 false, i32 0, i32 0, null, i32 256, i1 false, null, null, i32 0, metadata !121, i32 1821} ; [ DW_TAG_subprogram ]
!564 = metadata !{i32 786478, i32 0, metadata !378, metadata !"get_bit", metadata !"get_bit", metadata !"_ZNK11ap_int_baseILi11ELb1ELb1EE7get_bitEi", metadata !142, i32 1826, metadata !555, i1 false, i1 false, i32 0, i32 0, null, i32 256, i1 false, null, null, i32 0, metadata !121, i32 1826} ; [ DW_TAG_subprogram ]
!565 = metadata !{i32 786478, i32 0, metadata !378, metadata !"b_not", metadata !"b_not", metadata !"_ZN11ap_int_baseILi11ELb1ELb1EE5b_notEv", metadata !142, i32 1831, metadata !393, i1 false, i1 false, i32 0, i32 0, null, i32 256, i1 false, null, null, i32 0, metadata !121, i32 1831} ; [ DW_TAG_subprogram ]
!566 = metadata !{i32 786478, i32 0, metadata !378, metadata !"countLeadingZeros", metadata !"countLeadingZeros", metadata !"_ZN11ap_int_baseILi11ELb1ELb1EE17countLeadingZerosEv", metadata !142, i32 1838, metadata !567, i1 false, i1 false, i32 0, i32 0, null, i32 256, i1 false, null, null, i32 0, metadata !121, i32 1838} ; [ DW_TAG_subprogram ]
!567 = metadata !{i32 786453, i32 0, metadata !"", i32 0, i32 0, i64 0, i64 0, i64 0, i32 0, null, metadata !568, i32 0, i32 0} ; [ DW_TAG_subroutine_type ]
!568 = metadata !{metadata !156, metadata !395}
!569 = metadata !{i32 786478, i32 0, metadata !378, metadata !"operator++", metadata !"operator++", metadata !"_ZN11ap_int_baseILi11ELb1ELb1EEppEv", metadata !142, i32 1895, metadata !547, i1 false, i1 false, i32 0, i32 0, null, i32 256, i1 false, null, null, i32 0, metadata !121, i32 1895} ; [ DW_TAG_subprogram ]
!570 = metadata !{i32 786478, i32 0, metadata !378, metadata !"operator--", metadata !"operator--", metadata !"_ZN11ap_int_baseILi11ELb1ELb1EEmmEv", metadata !142, i32 1899, metadata !547, i1 false, i1 false, i32 0, i32 0, null, i32 256, i1 false, null, null, i32 0, metadata !121, i32 1899} ; [ DW_TAG_subprogram ]
!571 = metadata !{i32 786478, i32 0, metadata !378, metadata !"operator++", metadata !"operator++", metadata !"_ZN11ap_int_baseILi11ELb1ELb1EEppEi", metadata !142, i32 1907, metadata !572, i1 false, i1 false, i32 0, i32 0, null, i32 256, i1 false, null, null, i32 0, metadata !121, i32 1907} ; [ DW_TAG_subprogram ]
!572 = metadata !{i32 786453, i32 0, metadata !"", i32 0, i32 0, i64 0, i64 0, i64 0, i32 0, null, metadata !573, i32 0, i32 0} ; [ DW_TAG_subroutine_type ]
!573 = metadata !{metadata !453, metadata !395, metadata !156}
!574 = metadata !{i32 786478, i32 0, metadata !378, metadata !"operator--", metadata !"operator--", metadata !"_ZN11ap_int_baseILi11ELb1ELb1EEmmEi", metadata !142, i32 1912, metadata !572, i1 false, i1 false, i32 0, i32 0, null, i32 256, i1 false, null, null, i32 0, metadata !121, i32 1912} ; [ DW_TAG_subprogram ]
!575 = metadata !{i32 786478, i32 0, metadata !378, metadata !"operator+", metadata !"operator+", metadata !"_ZNK11ap_int_baseILi11ELb1ELb1EEpsEv", metadata !142, i32 1921, metadata !576, i1 false, i1 false, i32 0, i32 0, null, i32 256, i1 false, null, null, i32 0, metadata !121, i32 1921} ; [ DW_TAG_subprogram ]
!576 = metadata !{i32 786453, i32 0, metadata !"", i32 0, i32 0, i64 0, i64 0, i64 0, i32 0, null, metadata !577, i32 0, i32 0} ; [ DW_TAG_subroutine_type ]
!577 = metadata !{metadata !378, metadata !504}
!578 = metadata !{i32 786478, i32 0, metadata !378, metadata !"operator!", metadata !"operator!", metadata !"_ZNK11ap_int_baseILi11ELb1ELb1EEntEv", metadata !142, i32 1927, metadata !506, i1 false, i1 false, i32 0, i32 0, null, i32 256, i1 false, null, null, i32 0, metadata !121, i32 1927} ; [ DW_TAG_subprogram ]
!579 = metadata !{i32 786478, i32 0, metadata !378, metadata !"operator-", metadata !"operator-", metadata !"_ZNK11ap_int_baseILi11ELb1ELb1EEngEv", metadata !142, i32 1932, metadata !580, i1 false, i1 false, i32 0, i32 0, null, i32 256, i1 false, null, null, i32 0, metadata !121, i32 1932} ; [ DW_TAG_subprogram ]
!580 = metadata !{i32 786453, i32 0, metadata !"", i32 0, i32 0, i64 0, i64 0, i64 0, i32 0, null, metadata !581, i32 0, i32 0} ; [ DW_TAG_subroutine_type ]
!581 = metadata !{metadata !582, metadata !504}
!582 = metadata !{i32 786434, null, metadata !"ap_int_base<12, true, true>", metadata !142, i32 1453, i64 16, i64 16, i32 0, i32 0, null, metadata !583, i32 0, null, metadata !1137} ; [ DW_TAG_class_type ]
!583 = metadata !{metadata !584, metadata !595, metadata !599, metadata !899, metadata !902, metadata !905, metadata !908, metadata !911, metadata !914, metadata !917, metadata !920, metadata !923, metadata !926, metadata !929, metadata !932, metadata !935, metadata !938, metadata !941, metadata !944, metadata !947, metadata !950, metadata !955, metadata !960, metadata !963, metadata !968, metadata !971, metadata !972, metadata !976, metadata !979, metadata !982, metadata !985, metadata !988, metadata !991, metadata !994, metadata !997, metadata !1000, metadata !1003, metadata !1006, metadata !1009, metadata !1012, metadata !1015, metadata !1020, metadata !1023, metadata !1026, metadata !1029, metadata !1032, metadata !1035, metadata !1038, metadata !1041, metadata !1044, metadata !1047, metadata !1050, metadata !1053, metadata !1056, metadata !1057, metadata !1061, metadata !1064, metadata !1065, metadata !1066, metadata !1067, metadata !1068, metadata !1069, metadata !1072, metadata !1073, metadata !1076, metadata !1077, metadata !1078, metadata !1079, metadata !1080, metadata !1081, metadata !1084, metadata !1085, metadata !1086, metadata !1089, metadata !1090, metadata !1093, metadata !1094, metadata !1098, metadata !1102, metadata !1103, metadata !1106, metadata !1107, metadata !1111, metadata !1112, metadata !1113, metadata !1114, metadata !1117, metadata !1118, metadata !1119, metadata !1120, metadata !1121, metadata !1122, metadata !1123, metadata !1124, metadata !1125, metadata !1126, metadata !1127, metadata !1128, metadata !1131, metadata !1134}
!584 = metadata !{i32 786460, metadata !582, null, metadata !142, i32 0, i64 0, i64 0, i64 0, i32 0, metadata !585} ; [ DW_TAG_inheritance ]
!585 = metadata !{i32 786434, null, metadata !"ssdm_int<12 + 1024 * 0, true>", metadata !146, i32 25, i64 16, i64 16, i32 0, i32 0, null, metadata !586, i32 0, null, metadata !593} ; [ DW_TAG_class_type ]
!586 = metadata !{metadata !587, metadata !589}
!587 = metadata !{i32 786445, metadata !585, metadata !"V", metadata !146, i32 25, i64 12, i64 16, i64 0, i32 0, metadata !588} ; [ DW_TAG_member ]
!588 = metadata !{i32 786468, null, metadata !"int12", null, i32 0, i64 12, i64 16, i64 0, i32 0, i32 5} ; [ DW_TAG_base_type ]
!589 = metadata !{i32 786478, i32 0, metadata !585, metadata !"ssdm_int", metadata !"ssdm_int", metadata !"", metadata !146, i32 25, metadata !590, i1 false, i1 false, i32 0, i32 0, null, i32 256, i1 false, null, null, i32 0, metadata !121, i32 25} ; [ DW_TAG_subprogram ]
!590 = metadata !{i32 786453, i32 0, metadata !"", i32 0, i32 0, i64 0, i64 0, i64 0, i32 0, null, metadata !591, i32 0, i32 0} ; [ DW_TAG_subroutine_type ]
!591 = metadata !{null, metadata !592}
!592 = metadata !{i32 786447, i32 0, metadata !"", i32 0, i32 0, i64 64, i64 64, i64 0, i32 64, metadata !585} ; [ DW_TAG_pointer_type ]
!593 = metadata !{metadata !594, metadata !391}
!594 = metadata !{i32 786480, null, metadata !"_AP_N", metadata !156, i64 12, null, i32 0, i32 0} ; [ DW_TAG_template_value_parameter ]
!595 = metadata !{i32 786478, i32 0, metadata !582, metadata !"ap_int_base", metadata !"ap_int_base", metadata !"", metadata !142, i32 1494, metadata !596, i1 false, i1 false, i32 0, i32 0, null, i32 256, i1 false, null, null, i32 0, metadata !121, i32 1494} ; [ DW_TAG_subprogram ]
!596 = metadata !{i32 786453, i32 0, metadata !"", i32 0, i32 0, i64 0, i64 0, i64 0, i32 0, null, metadata !597, i32 0, i32 0} ; [ DW_TAG_subroutine_type ]
!597 = metadata !{null, metadata !598}
!598 = metadata !{i32 786447, i32 0, metadata !"", i32 0, i32 0, i64 64, i64 64, i64 0, i32 64, metadata !582} ; [ DW_TAG_pointer_type ]
!599 = metadata !{i32 786478, i32 0, metadata !582, metadata !"ap_int_base<33, true>", metadata !"ap_int_base<33, true>", metadata !"", metadata !142, i32 1506, metadata !600, i1 false, i1 false, i32 0, i32 0, null, i32 256, i1 false, null, metadata !624, i32 0, metadata !121, i32 1506} ; [ DW_TAG_subprogram ]
!600 = metadata !{i32 786453, i32 0, metadata !"", i32 0, i32 0, i64 0, i64 0, i64 0, i32 0, null, metadata !601, i32 0, i32 0} ; [ DW_TAG_subroutine_type ]
!601 = metadata !{null, metadata !598, metadata !602}
!602 = metadata !{i32 786448, null, null, null, i32 0, i64 0, i64 0, i64 0, i32 0, metadata !603} ; [ DW_TAG_reference_type ]
!603 = metadata !{i32 786470, null, metadata !"", null, i32 0, i64 0, i64 0, i64 0, i32 0, metadata !604} ; [ DW_TAG_const_type ]
!604 = metadata !{i32 786434, null, metadata !"ap_int_base<33, true, true>", metadata !142, i32 1453, i64 64, i64 64, i32 0, i32 0, null, metadata !605, i32 0, null, metadata !897} ; [ DW_TAG_class_type ]
!605 = metadata !{metadata !606, metadata !617, metadata !621, metadata !627, metadata !633, metadata !636, metadata !639, metadata !642, metadata !645, metadata !648, metadata !651, metadata !654, metadata !657, metadata !660, metadata !663, metadata !666, metadata !669, metadata !672, metadata !675, metadata !678, metadata !681, metadata !685, metadata !688, metadata !691, metadata !692, metadata !696, metadata !699, metadata !702, metadata !705, metadata !708, metadata !711, metadata !714, metadata !717, metadata !720, metadata !723, metadata !726, metadata !729, metadata !738, metadata !741, metadata !744, metadata !747, metadata !750, metadata !753, metadata !756, metadata !759, metadata !762, metadata !765, metadata !768, metadata !771, metadata !774, metadata !775, metadata !779, metadata !782, metadata !783, metadata !784, metadata !785, metadata !786, metadata !787, metadata !790, metadata !791, metadata !794, metadata !795, metadata !796, metadata !797, metadata !798, metadata !799, metadata !802, metadata !803, metadata !804, metadata !807, metadata !808, metadata !811, metadata !812, metadata !816, metadata !820, metadata !821, metadata !824, metadata !825, metadata !864, metadata !865, metadata !866, metadata !867, metadata !870, metadata !871, metadata !872, metadata !873, metadata !874, metadata !875, metadata !876, metadata !877, metadata !878, metadata !879, metadata !880, metadata !881, metadata !891, metadata !894}
!606 = metadata !{i32 786460, metadata !604, null, metadata !142, i32 0, i64 0, i64 0, i64 0, i32 0, metadata !607} ; [ DW_TAG_inheritance ]
!607 = metadata !{i32 786434, null, metadata !"ssdm_int<33 + 1024 * 0, true>", metadata !146, i32 67, i64 64, i64 64, i32 0, i32 0, null, metadata !608, i32 0, null, metadata !615} ; [ DW_TAG_class_type ]
!608 = metadata !{metadata !609, metadata !611}
!609 = metadata !{i32 786445, metadata !607, metadata !"V", metadata !146, i32 67, i64 33, i64 64, i64 0, i32 0, metadata !610} ; [ DW_TAG_member ]
!610 = metadata !{i32 786468, null, metadata !"int33", null, i32 0, i64 33, i64 64, i64 0, i32 0, i32 5} ; [ DW_TAG_base_type ]
!611 = metadata !{i32 786478, i32 0, metadata !607, metadata !"ssdm_int", metadata !"ssdm_int", metadata !"", metadata !146, i32 67, metadata !612, i1 false, i1 false, i32 0, i32 0, null, i32 256, i1 false, null, null, i32 0, metadata !121, i32 67} ; [ DW_TAG_subprogram ]
!612 = metadata !{i32 786453, i32 0, metadata !"", i32 0, i32 0, i64 0, i64 0, i64 0, i32 0, null, metadata !613, i32 0, i32 0} ; [ DW_TAG_subroutine_type ]
!613 = metadata !{null, metadata !614}
!614 = metadata !{i32 786447, i32 0, metadata !"", i32 0, i32 0, i64 64, i64 64, i64 0, i32 64, metadata !607} ; [ DW_TAG_pointer_type ]
!615 = metadata !{metadata !616, metadata !391}
!616 = metadata !{i32 786480, null, metadata !"_AP_N", metadata !156, i64 33, null, i32 0, i32 0} ; [ DW_TAG_template_value_parameter ]
!617 = metadata !{i32 786478, i32 0, metadata !604, metadata !"ap_int_base", metadata !"ap_int_base", metadata !"", metadata !142, i32 1494, metadata !618, i1 false, i1 false, i32 0, i32 0, null, i32 256, i1 false, null, null, i32 0, metadata !121, i32 1494} ; [ DW_TAG_subprogram ]
!618 = metadata !{i32 786453, i32 0, metadata !"", i32 0, i32 0, i64 0, i64 0, i64 0, i32 0, null, metadata !619, i32 0, i32 0} ; [ DW_TAG_subroutine_type ]
!619 = metadata !{null, metadata !620}
!620 = metadata !{i32 786447, i32 0, metadata !"", i32 0, i32 0, i64 64, i64 64, i64 0, i32 64, metadata !604} ; [ DW_TAG_pointer_type ]
!621 = metadata !{i32 786478, i32 0, metadata !604, metadata !"ap_int_base<33, true>", metadata !"ap_int_base<33, true>", metadata !"", metadata !142, i32 1506, metadata !622, i1 false, i1 false, i32 0, i32 0, null, i32 256, i1 false, null, metadata !624, i32 0, metadata !121, i32 1506} ; [ DW_TAG_subprogram ]
!622 = metadata !{i32 786453, i32 0, metadata !"", i32 0, i32 0, i64 0, i64 0, i64 0, i32 0, null, metadata !623, i32 0, i32 0} ; [ DW_TAG_subroutine_type ]
!623 = metadata !{null, metadata !620, metadata !602}
!624 = metadata !{metadata !625, metadata !626}
!625 = metadata !{i32 786480, null, metadata !"_AP_W2", metadata !156, i64 33, null, i32 0, i32 0} ; [ DW_TAG_template_value_parameter ]
!626 = metadata !{i32 786480, null, metadata !"_AP_S2", metadata !158, i64 1, null, i32 0, i32 0} ; [ DW_TAG_template_value_parameter ]
!627 = metadata !{i32 786478, i32 0, metadata !604, metadata !"ap_int_base<33, true>", metadata !"ap_int_base<33, true>", metadata !"", metadata !142, i32 1509, metadata !628, i1 false, i1 false, i32 0, i32 0, null, i32 256, i1 false, null, metadata !624, i32 0, metadata !121, i32 1509} ; [ DW_TAG_subprogram ]
!628 = metadata !{i32 786453, i32 0, metadata !"", i32 0, i32 0, i64 0, i64 0, i64 0, i32 0, null, metadata !629, i32 0, i32 0} ; [ DW_TAG_subroutine_type ]
!629 = metadata !{null, metadata !620, metadata !630}
!630 = metadata !{i32 786448, null, null, null, i32 0, i64 0, i64 0, i64 0, i32 0, metadata !631} ; [ DW_TAG_reference_type ]
!631 = metadata !{i32 786470, null, metadata !"", null, i32 0, i64 0, i64 0, i64 0, i32 0, metadata !632} ; [ DW_TAG_const_type ]
!632 = metadata !{i32 786485, null, metadata !"", null, i32 0, i64 0, i64 0, i64 0, i32 0, metadata !604} ; [ DW_TAG_volatile_type ]
!633 = metadata !{i32 786478, i32 0, metadata !604, metadata !"ap_int_base", metadata !"ap_int_base", metadata !"", metadata !142, i32 1516, metadata !634, i1 false, i1 false, i32 0, i32 0, null, i32 384, i1 false, null, null, i32 0, metadata !121, i32 1516} ; [ DW_TAG_subprogram ]
!634 = metadata !{i32 786453, i32 0, metadata !"", i32 0, i32 0, i64 0, i64 0, i64 0, i32 0, null, metadata !635, i32 0, i32 0} ; [ DW_TAG_subroutine_type ]
!635 = metadata !{null, metadata !620, metadata !158}
!636 = metadata !{i32 786478, i32 0, metadata !604, metadata !"ap_int_base", metadata !"ap_int_base", metadata !"", metadata !142, i32 1517, metadata !637, i1 false, i1 false, i32 0, i32 0, null, i32 384, i1 false, null, null, i32 0, metadata !121, i32 1517} ; [ DW_TAG_subprogram ]
!637 = metadata !{i32 786453, i32 0, metadata !"", i32 0, i32 0, i64 0, i64 0, i64 0, i32 0, null, metadata !638, i32 0, i32 0} ; [ DW_TAG_subroutine_type ]
!638 = metadata !{null, metadata !620, metadata !183}
!639 = metadata !{i32 786478, i32 0, metadata !604, metadata !"ap_int_base", metadata !"ap_int_base", metadata !"", metadata !142, i32 1518, metadata !640, i1 false, i1 false, i32 0, i32 0, null, i32 384, i1 false, null, null, i32 0, metadata !121, i32 1518} ; [ DW_TAG_subprogram ]
!640 = metadata !{i32 786453, i32 0, metadata !"", i32 0, i32 0, i64 0, i64 0, i64 0, i32 0, null, metadata !641, i32 0, i32 0} ; [ DW_TAG_subroutine_type ]
!641 = metadata !{null, metadata !620, metadata !187}
!642 = metadata !{i32 786478, i32 0, metadata !604, metadata !"ap_int_base", metadata !"ap_int_base", metadata !"", metadata !142, i32 1519, metadata !643, i1 false, i1 false, i32 0, i32 0, null, i32 384, i1 false, null, null, i32 0, metadata !121, i32 1519} ; [ DW_TAG_subprogram ]
!643 = metadata !{i32 786453, i32 0, metadata !"", i32 0, i32 0, i64 0, i64 0, i64 0, i32 0, null, metadata !644, i32 0, i32 0} ; [ DW_TAG_subroutine_type ]
!644 = metadata !{null, metadata !620, metadata !191}
!645 = metadata !{i32 786478, i32 0, metadata !604, metadata !"ap_int_base", metadata !"ap_int_base", metadata !"", metadata !142, i32 1520, metadata !646, i1 false, i1 false, i32 0, i32 0, null, i32 384, i1 false, null, null, i32 0, metadata !121, i32 1520} ; [ DW_TAG_subprogram ]
!646 = metadata !{i32 786453, i32 0, metadata !"", i32 0, i32 0, i64 0, i64 0, i64 0, i32 0, null, metadata !647, i32 0, i32 0} ; [ DW_TAG_subroutine_type ]
!647 = metadata !{null, metadata !620, metadata !195}
!648 = metadata !{i32 786478, i32 0, metadata !604, metadata !"ap_int_base", metadata !"ap_int_base", metadata !"", metadata !142, i32 1521, metadata !649, i1 false, i1 false, i32 0, i32 0, null, i32 384, i1 false, null, null, i32 0, metadata !121, i32 1521} ; [ DW_TAG_subprogram ]
!649 = metadata !{i32 786453, i32 0, metadata !"", i32 0, i32 0, i64 0, i64 0, i64 0, i32 0, null, metadata !650, i32 0, i32 0} ; [ DW_TAG_subroutine_type ]
!650 = metadata !{null, metadata !620, metadata !156}
!651 = metadata !{i32 786478, i32 0, metadata !604, metadata !"ap_int_base", metadata !"ap_int_base", metadata !"", metadata !142, i32 1522, metadata !652, i1 false, i1 false, i32 0, i32 0, null, i32 384, i1 false, null, null, i32 0, metadata !121, i32 1522} ; [ DW_TAG_subprogram ]
!652 = metadata !{i32 786453, i32 0, metadata !"", i32 0, i32 0, i64 0, i64 0, i64 0, i32 0, null, metadata !653, i32 0, i32 0} ; [ DW_TAG_subroutine_type ]
!653 = metadata !{null, metadata !620, metadata !202}
!654 = metadata !{i32 786478, i32 0, metadata !604, metadata !"ap_int_base", metadata !"ap_int_base", metadata !"", metadata !142, i32 1523, metadata !655, i1 false, i1 false, i32 0, i32 0, null, i32 384, i1 false, null, null, i32 0, metadata !121, i32 1523} ; [ DW_TAG_subprogram ]
!655 = metadata !{i32 786453, i32 0, metadata !"", i32 0, i32 0, i64 0, i64 0, i64 0, i32 0, null, metadata !656, i32 0, i32 0} ; [ DW_TAG_subroutine_type ]
!656 = metadata !{null, metadata !620, metadata !206}
!657 = metadata !{i32 786478, i32 0, metadata !604, metadata !"ap_int_base", metadata !"ap_int_base", metadata !"", metadata !142, i32 1524, metadata !658, i1 false, i1 false, i32 0, i32 0, null, i32 384, i1 false, null, null, i32 0, metadata !121, i32 1524} ; [ DW_TAG_subprogram ]
!658 = metadata !{i32 786453, i32 0, metadata !"", i32 0, i32 0, i64 0, i64 0, i64 0, i32 0, null, metadata !659, i32 0, i32 0} ; [ DW_TAG_subroutine_type ]
!659 = metadata !{null, metadata !620, metadata !210}
!660 = metadata !{i32 786478, i32 0, metadata !604, metadata !"ap_int_base", metadata !"ap_int_base", metadata !"", metadata !142, i32 1525, metadata !661, i1 false, i1 false, i32 0, i32 0, null, i32 384, i1 false, null, null, i32 0, metadata !121, i32 1525} ; [ DW_TAG_subprogram ]
!661 = metadata !{i32 786453, i32 0, metadata !"", i32 0, i32 0, i64 0, i64 0, i64 0, i32 0, null, metadata !662, i32 0, i32 0} ; [ DW_TAG_subroutine_type ]
!662 = metadata !{null, metadata !620, metadata !214}
!663 = metadata !{i32 786478, i32 0, metadata !604, metadata !"ap_int_base", metadata !"ap_int_base", metadata !"", metadata !142, i32 1526, metadata !664, i1 false, i1 false, i32 0, i32 0, null, i32 384, i1 false, null, null, i32 0, metadata !121, i32 1526} ; [ DW_TAG_subprogram ]
!664 = metadata !{i32 786453, i32 0, metadata !"", i32 0, i32 0, i64 0, i64 0, i64 0, i32 0, null, metadata !665, i32 0, i32 0} ; [ DW_TAG_subroutine_type ]
!665 = metadata !{null, metadata !620, metadata !219}
!666 = metadata !{i32 786478, i32 0, metadata !604, metadata !"ap_int_base", metadata !"ap_int_base", metadata !"", metadata !142, i32 1527, metadata !667, i1 false, i1 false, i32 0, i32 0, null, i32 384, i1 false, null, null, i32 0, metadata !121, i32 1527} ; [ DW_TAG_subprogram ]
!667 = metadata !{i32 786453, i32 0, metadata !"", i32 0, i32 0, i64 0, i64 0, i64 0, i32 0, null, metadata !668, i32 0, i32 0} ; [ DW_TAG_subroutine_type ]
!668 = metadata !{null, metadata !620, metadata !224}
!669 = metadata !{i32 786478, i32 0, metadata !604, metadata !"ap_int_base", metadata !"ap_int_base", metadata !"", metadata !142, i32 1528, metadata !670, i1 false, i1 false, i32 0, i32 0, null, i32 384, i1 false, null, null, i32 0, metadata !121, i32 1528} ; [ DW_TAG_subprogram ]
!670 = metadata !{i32 786453, i32 0, metadata !"", i32 0, i32 0, i64 0, i64 0, i64 0, i32 0, null, metadata !671, i32 0, i32 0} ; [ DW_TAG_subroutine_type ]
!671 = metadata !{null, metadata !620, metadata !229}
!672 = metadata !{i32 786478, i32 0, metadata !604, metadata !"ap_int_base", metadata !"ap_int_base", metadata !"", metadata !142, i32 1529, metadata !673, i1 false, i1 false, i32 0, i32 0, null, i32 384, i1 false, null, null, i32 0, metadata !121, i32 1529} ; [ DW_TAG_subprogram ]
!673 = metadata !{i32 786453, i32 0, metadata !"", i32 0, i32 0, i64 0, i64 0, i64 0, i32 0, null, metadata !674, i32 0, i32 0} ; [ DW_TAG_subroutine_type ]
!674 = metadata !{null, metadata !620, metadata !233}
!675 = metadata !{i32 786478, i32 0, metadata !604, metadata !"ap_int_base", metadata !"ap_int_base", metadata !"", metadata !142, i32 1556, metadata !676, i1 false, i1 false, i32 0, i32 0, null, i32 256, i1 false, null, null, i32 0, metadata !121, i32 1556} ; [ DW_TAG_subprogram ]
!676 = metadata !{i32 786453, i32 0, metadata !"", i32 0, i32 0, i64 0, i64 0, i64 0, i32 0, null, metadata !677, i32 0, i32 0} ; [ DW_TAG_subroutine_type ]
!677 = metadata !{null, metadata !620, metadata !237}
!678 = metadata !{i32 786478, i32 0, metadata !604, metadata !"ap_int_base", metadata !"ap_int_base", metadata !"", metadata !142, i32 1563, metadata !679, i1 false, i1 false, i32 0, i32 0, null, i32 256, i1 false, null, null, i32 0, metadata !121, i32 1563} ; [ DW_TAG_subprogram ]
!679 = metadata !{i32 786453, i32 0, metadata !"", i32 0, i32 0, i64 0, i64 0, i64 0, i32 0, null, metadata !680, i32 0, i32 0} ; [ DW_TAG_subroutine_type ]
!680 = metadata !{null, metadata !620, metadata !237, metadata !183}
!681 = metadata !{i32 786478, i32 0, metadata !604, metadata !"read", metadata !"read", metadata !"_ZNV11ap_int_baseILi33ELb1ELb1EE4readEv", metadata !142, i32 1584, metadata !682, i1 false, i1 false, i32 0, i32 0, null, i32 256, i1 false, null, null, i32 0, metadata !121, i32 1584} ; [ DW_TAG_subprogram ]
!682 = metadata !{i32 786453, i32 0, metadata !"", i32 0, i32 0, i64 0, i64 0, i64 0, i32 0, null, metadata !683, i32 0, i32 0} ; [ DW_TAG_subroutine_type ]
!683 = metadata !{metadata !604, metadata !684}
!684 = metadata !{i32 786447, i32 0, metadata !"", i32 0, i32 0, i64 64, i64 64, i64 0, i32 64, metadata !632} ; [ DW_TAG_pointer_type ]
!685 = metadata !{i32 786478, i32 0, metadata !604, metadata !"write", metadata !"write", metadata !"_ZNV11ap_int_baseILi33ELb1ELb1EE5writeERKS0_", metadata !142, i32 1590, metadata !686, i1 false, i1 false, i32 0, i32 0, null, i32 256, i1 false, null, null, i32 0, metadata !121, i32 1590} ; [ DW_TAG_subprogram ]
!686 = metadata !{i32 786453, i32 0, metadata !"", i32 0, i32 0, i64 0, i64 0, i64 0, i32 0, null, metadata !687, i32 0, i32 0} ; [ DW_TAG_subroutine_type ]
!687 = metadata !{null, metadata !684, metadata !602}
!688 = metadata !{i32 786478, i32 0, metadata !604, metadata !"operator=", metadata !"operator=", metadata !"_ZNV11ap_int_baseILi33ELb1ELb1EEaSERVKS0_", metadata !142, i32 1602, metadata !689, i1 false, i1 false, i32 0, i32 0, null, i32 256, i1 false, null, null, i32 0, metadata !121, i32 1602} ; [ DW_TAG_subprogram ]
!689 = metadata !{i32 786453, i32 0, metadata !"", i32 0, i32 0, i64 0, i64 0, i64 0, i32 0, null, metadata !690, i32 0, i32 0} ; [ DW_TAG_subroutine_type ]
!690 = metadata !{null, metadata !684, metadata !630}
!691 = metadata !{i32 786478, i32 0, metadata !604, metadata !"operator=", metadata !"operator=", metadata !"_ZNV11ap_int_baseILi33ELb1ELb1EEaSERKS0_", metadata !142, i32 1611, metadata !686, i1 false, i1 false, i32 0, i32 0, null, i32 256, i1 false, null, null, i32 0, metadata !121, i32 1611} ; [ DW_TAG_subprogram ]
!692 = metadata !{i32 786478, i32 0, metadata !604, metadata !"operator=", metadata !"operator=", metadata !"_ZN11ap_int_baseILi33ELb1ELb1EEaSERVKS0_", metadata !142, i32 1634, metadata !693, i1 false, i1 false, i32 0, i32 0, null, i32 256, i1 false, null, null, i32 0, metadata !121, i32 1634} ; [ DW_TAG_subprogram ]
!693 = metadata !{i32 786453, i32 0, metadata !"", i32 0, i32 0, i64 0, i64 0, i64 0, i32 0, null, metadata !694, i32 0, i32 0} ; [ DW_TAG_subroutine_type ]
!694 = metadata !{metadata !695, metadata !620, metadata !630}
!695 = metadata !{i32 786448, null, null, null, i32 0, i64 0, i64 0, i64 0, i32 0, metadata !604} ; [ DW_TAG_reference_type ]
!696 = metadata !{i32 786478, i32 0, metadata !604, metadata !"operator=", metadata !"operator=", metadata !"_ZN11ap_int_baseILi33ELb1ELb1EEaSERKS0_", metadata !142, i32 1639, metadata !697, i1 false, i1 false, i32 0, i32 0, null, i32 256, i1 false, null, null, i32 0, metadata !121, i32 1639} ; [ DW_TAG_subprogram ]
!697 = metadata !{i32 786453, i32 0, metadata !"", i32 0, i32 0, i64 0, i64 0, i64 0, i32 0, null, metadata !698, i32 0, i32 0} ; [ DW_TAG_subroutine_type ]
!698 = metadata !{metadata !695, metadata !620, metadata !602}
!699 = metadata !{i32 786478, i32 0, metadata !604, metadata !"operator=", metadata !"operator=", metadata !"_ZN11ap_int_baseILi33ELb1ELb1EEaSEPKc", metadata !142, i32 1643, metadata !700, i1 false, i1 false, i32 0, i32 0, null, i32 256, i1 false, null, null, i32 0, metadata !121, i32 1643} ; [ DW_TAG_subprogram ]
!700 = metadata !{i32 786453, i32 0, metadata !"", i32 0, i32 0, i64 0, i64 0, i64 0, i32 0, null, metadata !701, i32 0, i32 0} ; [ DW_TAG_subroutine_type ]
!701 = metadata !{metadata !695, metadata !620, metadata !237}
!702 = metadata !{i32 786478, i32 0, metadata !604, metadata !"set", metadata !"set", metadata !"_ZN11ap_int_baseILi33ELb1ELb1EE3setEPKca", metadata !142, i32 1651, metadata !703, i1 false, i1 false, i32 0, i32 0, null, i32 256, i1 false, null, null, i32 0, metadata !121, i32 1651} ; [ DW_TAG_subprogram ]
!703 = metadata !{i32 786453, i32 0, metadata !"", i32 0, i32 0, i64 0, i64 0, i64 0, i32 0, null, metadata !704, i32 0, i32 0} ; [ DW_TAG_subroutine_type ]
!704 = metadata !{metadata !695, metadata !620, metadata !237, metadata !183}
!705 = metadata !{i32 786478, i32 0, metadata !604, metadata !"operator=", metadata !"operator=", metadata !"_ZN11ap_int_baseILi33ELb1ELb1EEaSEa", metadata !142, i32 1665, metadata !706, i1 false, i1 false, i32 0, i32 0, null, i32 256, i1 false, null, null, i32 0, metadata !121, i32 1665} ; [ DW_TAG_subprogram ]
!706 = metadata !{i32 786453, i32 0, metadata !"", i32 0, i32 0, i64 0, i64 0, i64 0, i32 0, null, metadata !707, i32 0, i32 0} ; [ DW_TAG_subroutine_type ]
!707 = metadata !{metadata !695, metadata !620, metadata !183}
!708 = metadata !{i32 786478, i32 0, metadata !604, metadata !"operator=", metadata !"operator=", metadata !"_ZN11ap_int_baseILi33ELb1ELb1EEaSEh", metadata !142, i32 1666, metadata !709, i1 false, i1 false, i32 0, i32 0, null, i32 256, i1 false, null, null, i32 0, metadata !121, i32 1666} ; [ DW_TAG_subprogram ]
!709 = metadata !{i32 786453, i32 0, metadata !"", i32 0, i32 0, i64 0, i64 0, i64 0, i32 0, null, metadata !710, i32 0, i32 0} ; [ DW_TAG_subroutine_type ]
!710 = metadata !{metadata !695, metadata !620, metadata !187}
!711 = metadata !{i32 786478, i32 0, metadata !604, metadata !"operator=", metadata !"operator=", metadata !"_ZN11ap_int_baseILi33ELb1ELb1EEaSEs", metadata !142, i32 1667, metadata !712, i1 false, i1 false, i32 0, i32 0, null, i32 256, i1 false, null, null, i32 0, metadata !121, i32 1667} ; [ DW_TAG_subprogram ]
!712 = metadata !{i32 786453, i32 0, metadata !"", i32 0, i32 0, i64 0, i64 0, i64 0, i32 0, null, metadata !713, i32 0, i32 0} ; [ DW_TAG_subroutine_type ]
!713 = metadata !{metadata !695, metadata !620, metadata !191}
!714 = metadata !{i32 786478, i32 0, metadata !604, metadata !"operator=", metadata !"operator=", metadata !"_ZN11ap_int_baseILi33ELb1ELb1EEaSEt", metadata !142, i32 1668, metadata !715, i1 false, i1 false, i32 0, i32 0, null, i32 256, i1 false, null, null, i32 0, metadata !121, i32 1668} ; [ DW_TAG_subprogram ]
!715 = metadata !{i32 786453, i32 0, metadata !"", i32 0, i32 0, i64 0, i64 0, i64 0, i32 0, null, metadata !716, i32 0, i32 0} ; [ DW_TAG_subroutine_type ]
!716 = metadata !{metadata !695, metadata !620, metadata !195}
!717 = metadata !{i32 786478, i32 0, metadata !604, metadata !"operator=", metadata !"operator=", metadata !"_ZN11ap_int_baseILi33ELb1ELb1EEaSEi", metadata !142, i32 1669, metadata !718, i1 false, i1 false, i32 0, i32 0, null, i32 256, i1 false, null, null, i32 0, metadata !121, i32 1669} ; [ DW_TAG_subprogram ]
!718 = metadata !{i32 786453, i32 0, metadata !"", i32 0, i32 0, i64 0, i64 0, i64 0, i32 0, null, metadata !719, i32 0, i32 0} ; [ DW_TAG_subroutine_type ]
!719 = metadata !{metadata !695, metadata !620, metadata !156}
!720 = metadata !{i32 786478, i32 0, metadata !604, metadata !"operator=", metadata !"operator=", metadata !"_ZN11ap_int_baseILi33ELb1ELb1EEaSEj", metadata !142, i32 1670, metadata !721, i1 false, i1 false, i32 0, i32 0, null, i32 256, i1 false, null, null, i32 0, metadata !121, i32 1670} ; [ DW_TAG_subprogram ]
!721 = metadata !{i32 786453, i32 0, metadata !"", i32 0, i32 0, i64 0, i64 0, i64 0, i32 0, null, metadata !722, i32 0, i32 0} ; [ DW_TAG_subroutine_type ]
!722 = metadata !{metadata !695, metadata !620, metadata !202}
!723 = metadata !{i32 786478, i32 0, metadata !604, metadata !"operator=", metadata !"operator=", metadata !"_ZN11ap_int_baseILi33ELb1ELb1EEaSEx", metadata !142, i32 1671, metadata !724, i1 false, i1 false, i32 0, i32 0, null, i32 256, i1 false, null, null, i32 0, metadata !121, i32 1671} ; [ DW_TAG_subprogram ]
!724 = metadata !{i32 786453, i32 0, metadata !"", i32 0, i32 0, i64 0, i64 0, i64 0, i32 0, null, metadata !725, i32 0, i32 0} ; [ DW_TAG_subroutine_type ]
!725 = metadata !{metadata !695, metadata !620, metadata !214}
!726 = metadata !{i32 786478, i32 0, metadata !604, metadata !"operator=", metadata !"operator=", metadata !"_ZN11ap_int_baseILi33ELb1ELb1EEaSEy", metadata !142, i32 1672, metadata !727, i1 false, i1 false, i32 0, i32 0, null, i32 256, i1 false, null, null, i32 0, metadata !121, i32 1672} ; [ DW_TAG_subprogram ]
!727 = metadata !{i32 786453, i32 0, metadata !"", i32 0, i32 0, i64 0, i64 0, i64 0, i32 0, null, metadata !728, i32 0, i32 0} ; [ DW_TAG_subroutine_type ]
!728 = metadata !{metadata !695, metadata !620, metadata !219}
!729 = metadata !{i32 786478, i32 0, metadata !604, metadata !"operator long long", metadata !"operator long long", metadata !"_ZNK11ap_int_baseILi33ELb1ELb1EEcvxEv", metadata !142, i32 1710, metadata !730, i1 false, i1 false, i32 0, i32 0, null, i32 256, i1 false, null, null, i32 0, metadata !121, i32 1710} ; [ DW_TAG_subprogram ]
!730 = metadata !{i32 786453, i32 0, metadata !"", i32 0, i32 0, i64 0, i64 0, i64 0, i32 0, null, metadata !731, i32 0, i32 0} ; [ DW_TAG_subroutine_type ]
!731 = metadata !{metadata !732, metadata !737}
!732 = metadata !{i32 786454, metadata !604, metadata !"RetType", metadata !142, i32 1458, i64 0, i64 0, i64 0, i32 0, metadata !733} ; [ DW_TAG_typedef ]
!733 = metadata !{i32 786454, metadata !734, metadata !"Type", metadata !142, i32 1415, i64 0, i64 0, i64 0, i32 0, metadata !214} ; [ DW_TAG_typedef ]
!734 = metadata !{i32 786434, null, metadata !"retval<5, true>", metadata !142, i32 1414, i64 8, i64 8, i32 0, i32 0, null, metadata !297, i32 0, null, metadata !735} ; [ DW_TAG_class_type ]
!735 = metadata !{metadata !736, metadata !391}
!736 = metadata !{i32 786480, null, metadata !"_AP_N", metadata !156, i64 5, null, i32 0, i32 0} ; [ DW_TAG_template_value_parameter ]
!737 = metadata !{i32 786447, i32 0, metadata !"", i32 0, i32 0, i64 64, i64 64, i64 0, i32 64, metadata !603} ; [ DW_TAG_pointer_type ]
!738 = metadata !{i32 786478, i32 0, metadata !604, metadata !"to_bool", metadata !"to_bool", metadata !"_ZNK11ap_int_baseILi33ELb1ELb1EE7to_boolEv", metadata !142, i32 1716, metadata !739, i1 false, i1 false, i32 0, i32 0, null, i32 256, i1 false, null, null, i32 0, metadata !121, i32 1716} ; [ DW_TAG_subprogram ]
!739 = metadata !{i32 786453, i32 0, metadata !"", i32 0, i32 0, i64 0, i64 0, i64 0, i32 0, null, metadata !740, i32 0, i32 0} ; [ DW_TAG_subroutine_type ]
!740 = metadata !{metadata !158, metadata !737}
!741 = metadata !{i32 786478, i32 0, metadata !604, metadata !"to_uchar", metadata !"to_uchar", metadata !"_ZNK11ap_int_baseILi33ELb1ELb1EE8to_ucharEv", metadata !142, i32 1717, metadata !742, i1 false, i1 false, i32 0, i32 0, null, i32 256, i1 false, null, null, i32 0, metadata !121, i32 1717} ; [ DW_TAG_subprogram ]
!742 = metadata !{i32 786453, i32 0, metadata !"", i32 0, i32 0, i64 0, i64 0, i64 0, i32 0, null, metadata !743, i32 0, i32 0} ; [ DW_TAG_subroutine_type ]
!743 = metadata !{metadata !187, metadata !737}
!744 = metadata !{i32 786478, i32 0, metadata !604, metadata !"to_char", metadata !"to_char", metadata !"_ZNK11ap_int_baseILi33ELb1ELb1EE7to_charEv", metadata !142, i32 1718, metadata !745, i1 false, i1 false, i32 0, i32 0, null, i32 256, i1 false, null, null, i32 0, metadata !121, i32 1718} ; [ DW_TAG_subprogram ]
!745 = metadata !{i32 786453, i32 0, metadata !"", i32 0, i32 0, i64 0, i64 0, i64 0, i32 0, null, metadata !746, i32 0, i32 0} ; [ DW_TAG_subroutine_type ]
!746 = metadata !{metadata !183, metadata !737}
!747 = metadata !{i32 786478, i32 0, metadata !604, metadata !"to_ushort", metadata !"to_ushort", metadata !"_ZNK11ap_int_baseILi33ELb1ELb1EE9to_ushortEv", metadata !142, i32 1719, metadata !748, i1 false, i1 false, i32 0, i32 0, null, i32 256, i1 false, null, null, i32 0, metadata !121, i32 1719} ; [ DW_TAG_subprogram ]
!748 = metadata !{i32 786453, i32 0, metadata !"", i32 0, i32 0, i64 0, i64 0, i64 0, i32 0, null, metadata !749, i32 0, i32 0} ; [ DW_TAG_subroutine_type ]
!749 = metadata !{metadata !195, metadata !737}
!750 = metadata !{i32 786478, i32 0, metadata !604, metadata !"to_short", metadata !"to_short", metadata !"_ZNK11ap_int_baseILi33ELb1ELb1EE8to_shortEv", metadata !142, i32 1720, metadata !751, i1 false, i1 false, i32 0, i32 0, null, i32 256, i1 false, null, null, i32 0, metadata !121, i32 1720} ; [ DW_TAG_subprogram ]
!751 = metadata !{i32 786453, i32 0, metadata !"", i32 0, i32 0, i64 0, i64 0, i64 0, i32 0, null, metadata !752, i32 0, i32 0} ; [ DW_TAG_subroutine_type ]
!752 = metadata !{metadata !191, metadata !737}
!753 = metadata !{i32 786478, i32 0, metadata !604, metadata !"to_int", metadata !"to_int", metadata !"_ZNK11ap_int_baseILi33ELb1ELb1EE6to_intEv", metadata !142, i32 1721, metadata !754, i1 false, i1 false, i32 0, i32 0, null, i32 256, i1 false, null, null, i32 0, metadata !121, i32 1721} ; [ DW_TAG_subprogram ]
!754 = metadata !{i32 786453, i32 0, metadata !"", i32 0, i32 0, i64 0, i64 0, i64 0, i32 0, null, metadata !755, i32 0, i32 0} ; [ DW_TAG_subroutine_type ]
!755 = metadata !{metadata !156, metadata !737}
!756 = metadata !{i32 786478, i32 0, metadata !604, metadata !"to_uint", metadata !"to_uint", metadata !"_ZNK11ap_int_baseILi33ELb1ELb1EE7to_uintEv", metadata !142, i32 1722, metadata !757, i1 false, i1 false, i32 0, i32 0, null, i32 256, i1 false, null, null, i32 0, metadata !121, i32 1722} ; [ DW_TAG_subprogram ]
!757 = metadata !{i32 786453, i32 0, metadata !"", i32 0, i32 0, i64 0, i64 0, i64 0, i32 0, null, metadata !758, i32 0, i32 0} ; [ DW_TAG_subroutine_type ]
!758 = metadata !{metadata !202, metadata !737}
!759 = metadata !{i32 786478, i32 0, metadata !604, metadata !"to_long", metadata !"to_long", metadata !"_ZNK11ap_int_baseILi33ELb1ELb1EE7to_longEv", metadata !142, i32 1723, metadata !760, i1 false, i1 false, i32 0, i32 0, null, i32 256, i1 false, null, null, i32 0, metadata !121, i32 1723} ; [ DW_TAG_subprogram ]
!760 = metadata !{i32 786453, i32 0, metadata !"", i32 0, i32 0, i64 0, i64 0, i64 0, i32 0, null, metadata !761, i32 0, i32 0} ; [ DW_TAG_subroutine_type ]
!761 = metadata !{metadata !206, metadata !737}
!762 = metadata !{i32 786478, i32 0, metadata !604, metadata !"to_ulong", metadata !"to_ulong", metadata !"_ZNK11ap_int_baseILi33ELb1ELb1EE8to_ulongEv", metadata !142, i32 1724, metadata !763, i1 false, i1 false, i32 0, i32 0, null, i32 256, i1 false, null, null, i32 0, metadata !121, i32 1724} ; [ DW_TAG_subprogram ]
!763 = metadata !{i32 786453, i32 0, metadata !"", i32 0, i32 0, i64 0, i64 0, i64 0, i32 0, null, metadata !764, i32 0, i32 0} ; [ DW_TAG_subroutine_type ]
!764 = metadata !{metadata !210, metadata !737}
!765 = metadata !{i32 786478, i32 0, metadata !604, metadata !"to_int64", metadata !"to_int64", metadata !"_ZNK11ap_int_baseILi33ELb1ELb1EE8to_int64Ev", metadata !142, i32 1725, metadata !766, i1 false, i1 false, i32 0, i32 0, null, i32 256, i1 false, null, null, i32 0, metadata !121, i32 1725} ; [ DW_TAG_subprogram ]
!766 = metadata !{i32 786453, i32 0, metadata !"", i32 0, i32 0, i64 0, i64 0, i64 0, i32 0, null, metadata !767, i32 0, i32 0} ; [ DW_TAG_subroutine_type ]
!767 = metadata !{metadata !214, metadata !737}
!768 = metadata !{i32 786478, i32 0, metadata !604, metadata !"to_uint64", metadata !"to_uint64", metadata !"_ZNK11ap_int_baseILi33ELb1ELb1EE9to_uint64Ev", metadata !142, i32 1726, metadata !769, i1 false, i1 false, i32 0, i32 0, null, i32 256, i1 false, null, null, i32 0, metadata !121, i32 1726} ; [ DW_TAG_subprogram ]
!769 = metadata !{i32 786453, i32 0, metadata !"", i32 0, i32 0, i64 0, i64 0, i64 0, i32 0, null, metadata !770, i32 0, i32 0} ; [ DW_TAG_subroutine_type ]
!770 = metadata !{metadata !219, metadata !737}
!771 = metadata !{i32 786478, i32 0, metadata !604, metadata !"to_double", metadata !"to_double", metadata !"_ZNK11ap_int_baseILi33ELb1ELb1EE9to_doubleEv", metadata !142, i32 1727, metadata !772, i1 false, i1 false, i32 0, i32 0, null, i32 256, i1 false, null, null, i32 0, metadata !121, i32 1727} ; [ DW_TAG_subprogram ]
!772 = metadata !{i32 786453, i32 0, metadata !"", i32 0, i32 0, i64 0, i64 0, i64 0, i32 0, null, metadata !773, i32 0, i32 0} ; [ DW_TAG_subroutine_type ]
!773 = metadata !{metadata !233, metadata !737}
!774 = metadata !{i32 786478, i32 0, metadata !604, metadata !"length", metadata !"length", metadata !"_ZNK11ap_int_baseILi33ELb1ELb1EE6lengthEv", metadata !142, i32 1741, metadata !754, i1 false, i1 false, i32 0, i32 0, null, i32 256, i1 false, null, null, i32 0, metadata !121, i32 1741} ; [ DW_TAG_subprogram ]
!775 = metadata !{i32 786478, i32 0, metadata !604, metadata !"length", metadata !"length", metadata !"_ZNVK11ap_int_baseILi33ELb1ELb1EE6lengthEv", metadata !142, i32 1742, metadata !776, i1 false, i1 false, i32 0, i32 0, null, i32 256, i1 false, null, null, i32 0, metadata !121, i32 1742} ; [ DW_TAG_subprogram ]
!776 = metadata !{i32 786453, i32 0, metadata !"", i32 0, i32 0, i64 0, i64 0, i64 0, i32 0, null, metadata !777, i32 0, i32 0} ; [ DW_TAG_subroutine_type ]
!777 = metadata !{metadata !156, metadata !778}
!778 = metadata !{i32 786447, i32 0, metadata !"", i32 0, i32 0, i64 64, i64 64, i64 0, i32 64, metadata !631} ; [ DW_TAG_pointer_type ]
!779 = metadata !{i32 786478, i32 0, metadata !604, metadata !"reverse", metadata !"reverse", metadata !"_ZN11ap_int_baseILi33ELb1ELb1EE7reverseEv", metadata !142, i32 1747, metadata !780, i1 false, i1 false, i32 0, i32 0, null, i32 256, i1 false, null, null, i32 0, metadata !121, i32 1747} ; [ DW_TAG_subprogram ]
!780 = metadata !{i32 786453, i32 0, metadata !"", i32 0, i32 0, i64 0, i64 0, i64 0, i32 0, null, metadata !781, i32 0, i32 0} ; [ DW_TAG_subroutine_type ]
!781 = metadata !{metadata !695, metadata !620}
!782 = metadata !{i32 786478, i32 0, metadata !604, metadata !"iszero", metadata !"iszero", metadata !"_ZNK11ap_int_baseILi33ELb1ELb1EE6iszeroEv", metadata !142, i32 1753, metadata !739, i1 false, i1 false, i32 0, i32 0, null, i32 256, i1 false, null, null, i32 0, metadata !121, i32 1753} ; [ DW_TAG_subprogram ]
!783 = metadata !{i32 786478, i32 0, metadata !604, metadata !"is_zero", metadata !"is_zero", metadata !"_ZNK11ap_int_baseILi33ELb1ELb1EE7is_zeroEv", metadata !142, i32 1758, metadata !739, i1 false, i1 false, i32 0, i32 0, null, i32 256, i1 false, null, null, i32 0, metadata !121, i32 1758} ; [ DW_TAG_subprogram ]
!784 = metadata !{i32 786478, i32 0, metadata !604, metadata !"sign", metadata !"sign", metadata !"_ZNK11ap_int_baseILi33ELb1ELb1EE4signEv", metadata !142, i32 1763, metadata !739, i1 false, i1 false, i32 0, i32 0, null, i32 256, i1 false, null, null, i32 0, metadata !121, i32 1763} ; [ DW_TAG_subprogram ]
!785 = metadata !{i32 786478, i32 0, metadata !604, metadata !"clear", metadata !"clear", metadata !"_ZN11ap_int_baseILi33ELb1ELb1EE5clearEi", metadata !142, i32 1771, metadata !649, i1 false, i1 false, i32 0, i32 0, null, i32 256, i1 false, null, null, i32 0, metadata !121, i32 1771} ; [ DW_TAG_subprogram ]
!786 = metadata !{i32 786478, i32 0, metadata !604, metadata !"invert", metadata !"invert", metadata !"_ZN11ap_int_baseILi33ELb1ELb1EE6invertEi", metadata !142, i32 1777, metadata !649, i1 false, i1 false, i32 0, i32 0, null, i32 256, i1 false, null, null, i32 0, metadata !121, i32 1777} ; [ DW_TAG_subprogram ]
!787 = metadata !{i32 786478, i32 0, metadata !604, metadata !"test", metadata !"test", metadata !"_ZNK11ap_int_baseILi33ELb1ELb1EE4testEi", metadata !142, i32 1785, metadata !788, i1 false, i1 false, i32 0, i32 0, null, i32 256, i1 false, null, null, i32 0, metadata !121, i32 1785} ; [ DW_TAG_subprogram ]
!788 = metadata !{i32 786453, i32 0, metadata !"", i32 0, i32 0, i64 0, i64 0, i64 0, i32 0, null, metadata !789, i32 0, i32 0} ; [ DW_TAG_subroutine_type ]
!789 = metadata !{metadata !158, metadata !737, metadata !156}
!790 = metadata !{i32 786478, i32 0, metadata !604, metadata !"set", metadata !"set", metadata !"_ZN11ap_int_baseILi33ELb1ELb1EE3setEi", metadata !142, i32 1791, metadata !649, i1 false, i1 false, i32 0, i32 0, null, i32 256, i1 false, null, null, i32 0, metadata !121, i32 1791} ; [ DW_TAG_subprogram ]
!791 = metadata !{i32 786478, i32 0, metadata !604, metadata !"set", metadata !"set", metadata !"_ZN11ap_int_baseILi33ELb1ELb1EE3setEib", metadata !142, i32 1797, metadata !792, i1 false, i1 false, i32 0, i32 0, null, i32 256, i1 false, null, null, i32 0, metadata !121, i32 1797} ; [ DW_TAG_subprogram ]
!792 = metadata !{i32 786453, i32 0, metadata !"", i32 0, i32 0, i64 0, i64 0, i64 0, i32 0, null, metadata !793, i32 0, i32 0} ; [ DW_TAG_subroutine_type ]
!793 = metadata !{null, metadata !620, metadata !156, metadata !158}
!794 = metadata !{i32 786478, i32 0, metadata !604, metadata !"lrotate", metadata !"lrotate", metadata !"_ZN11ap_int_baseILi33ELb1ELb1EE7lrotateEi", metadata !142, i32 1804, metadata !649, i1 false, i1 false, i32 0, i32 0, null, i32 256, i1 false, null, null, i32 0, metadata !121, i32 1804} ; [ DW_TAG_subprogram ]
!795 = metadata !{i32 786478, i32 0, metadata !604, metadata !"rrotate", metadata !"rrotate", metadata !"_ZN11ap_int_baseILi33ELb1ELb1EE7rrotateEi", metadata !142, i32 1813, metadata !649, i1 false, i1 false, i32 0, i32 0, null, i32 256, i1 false, null, null, i32 0, metadata !121, i32 1813} ; [ DW_TAG_subprogram ]
!796 = metadata !{i32 786478, i32 0, metadata !604, metadata !"set_bit", metadata !"set_bit", metadata !"_ZN11ap_int_baseILi33ELb1ELb1EE7set_bitEib", metadata !142, i32 1821, metadata !792, i1 false, i1 false, i32 0, i32 0, null, i32 256, i1 false, null, null, i32 0, metadata !121, i32 1821} ; [ DW_TAG_subprogram ]
!797 = metadata !{i32 786478, i32 0, metadata !604, metadata !"get_bit", metadata !"get_bit", metadata !"_ZNK11ap_int_baseILi33ELb1ELb1EE7get_bitEi", metadata !142, i32 1826, metadata !788, i1 false, i1 false, i32 0, i32 0, null, i32 256, i1 false, null, null, i32 0, metadata !121, i32 1826} ; [ DW_TAG_subprogram ]
!798 = metadata !{i32 786478, i32 0, metadata !604, metadata !"b_not", metadata !"b_not", metadata !"_ZN11ap_int_baseILi33ELb1ELb1EE5b_notEv", metadata !142, i32 1831, metadata !618, i1 false, i1 false, i32 0, i32 0, null, i32 256, i1 false, null, null, i32 0, metadata !121, i32 1831} ; [ DW_TAG_subprogram ]
!799 = metadata !{i32 786478, i32 0, metadata !604, metadata !"countLeadingZeros", metadata !"countLeadingZeros", metadata !"_ZN11ap_int_baseILi33ELb1ELb1EE17countLeadingZerosEv", metadata !142, i32 1838, metadata !800, i1 false, i1 false, i32 0, i32 0, null, i32 256, i1 false, null, null, i32 0, metadata !121, i32 1838} ; [ DW_TAG_subprogram ]
!800 = metadata !{i32 786453, i32 0, metadata !"", i32 0, i32 0, i64 0, i64 0, i64 0, i32 0, null, metadata !801, i32 0, i32 0} ; [ DW_TAG_subroutine_type ]
!801 = metadata !{metadata !156, metadata !620}
!802 = metadata !{i32 786478, i32 0, metadata !604, metadata !"operator++", metadata !"operator++", metadata !"_ZN11ap_int_baseILi33ELb1ELb1EEppEv", metadata !142, i32 1895, metadata !780, i1 false, i1 false, i32 0, i32 0, null, i32 256, i1 false, null, null, i32 0, metadata !121, i32 1895} ; [ DW_TAG_subprogram ]
!803 = metadata !{i32 786478, i32 0, metadata !604, metadata !"operator--", metadata !"operator--", metadata !"_ZN11ap_int_baseILi33ELb1ELb1EEmmEv", metadata !142, i32 1899, metadata !780, i1 false, i1 false, i32 0, i32 0, null, i32 256, i1 false, null, null, i32 0, metadata !121, i32 1899} ; [ DW_TAG_subprogram ]
!804 = metadata !{i32 786478, i32 0, metadata !604, metadata !"operator++", metadata !"operator++", metadata !"_ZN11ap_int_baseILi33ELb1ELb1EEppEi", metadata !142, i32 1907, metadata !805, i1 false, i1 false, i32 0, i32 0, null, i32 256, i1 false, null, null, i32 0, metadata !121, i32 1907} ; [ DW_TAG_subprogram ]
!805 = metadata !{i32 786453, i32 0, metadata !"", i32 0, i32 0, i64 0, i64 0, i64 0, i32 0, null, metadata !806, i32 0, i32 0} ; [ DW_TAG_subroutine_type ]
!806 = metadata !{metadata !603, metadata !620, metadata !156}
!807 = metadata !{i32 786478, i32 0, metadata !604, metadata !"operator--", metadata !"operator--", metadata !"_ZN11ap_int_baseILi33ELb1ELb1EEmmEi", metadata !142, i32 1912, metadata !805, i1 false, i1 false, i32 0, i32 0, null, i32 256, i1 false, null, null, i32 0, metadata !121, i32 1912} ; [ DW_TAG_subprogram ]
!808 = metadata !{i32 786478, i32 0, metadata !604, metadata !"operator+", metadata !"operator+", metadata !"_ZNK11ap_int_baseILi33ELb1ELb1EEpsEv", metadata !142, i32 1921, metadata !809, i1 false, i1 false, i32 0, i32 0, null, i32 256, i1 false, null, null, i32 0, metadata !121, i32 1921} ; [ DW_TAG_subprogram ]
!809 = metadata !{i32 786453, i32 0, metadata !"", i32 0, i32 0, i64 0, i64 0, i64 0, i32 0, null, metadata !810, i32 0, i32 0} ; [ DW_TAG_subroutine_type ]
!810 = metadata !{metadata !604, metadata !737}
!811 = metadata !{i32 786478, i32 0, metadata !604, metadata !"operator!", metadata !"operator!", metadata !"_ZNK11ap_int_baseILi33ELb1ELb1EEntEv", metadata !142, i32 1927, metadata !739, i1 false, i1 false, i32 0, i32 0, null, i32 256, i1 false, null, null, i32 0, metadata !121, i32 1927} ; [ DW_TAG_subprogram ]
!812 = metadata !{i32 786478, i32 0, metadata !604, metadata !"operator-", metadata !"operator-", metadata !"_ZNK11ap_int_baseILi33ELb1ELb1EEngEv", metadata !142, i32 1932, metadata !813, i1 false, i1 false, i32 0, i32 0, null, i32 256, i1 false, null, null, i32 0, metadata !121, i32 1932} ; [ DW_TAG_subprogram ]
!813 = metadata !{i32 786453, i32 0, metadata !"", i32 0, i32 0, i64 0, i64 0, i64 0, i32 0, null, metadata !814, i32 0, i32 0} ; [ DW_TAG_subroutine_type ]
!814 = metadata !{metadata !815, metadata !737}
!815 = metadata !{i32 786434, null, metadata !"ap_int_base<34, true, true>", metadata !142, i32 651, i32 0, i32 0, i32 0, i32 4, null, null, i32 0} ; [ DW_TAG_class_type ]
!816 = metadata !{i32 786478, i32 0, metadata !604, metadata !"range", metadata !"range", metadata !"_ZN11ap_int_baseILi33ELb1ELb1EE5rangeEii", metadata !142, i32 2062, metadata !817, i1 false, i1 false, i32 0, i32 0, null, i32 256, i1 false, null, null, i32 0, metadata !121, i32 2062} ; [ DW_TAG_subprogram ]
!817 = metadata !{i32 786453, i32 0, metadata !"", i32 0, i32 0, i64 0, i64 0, i64 0, i32 0, null, metadata !818, i32 0, i32 0} ; [ DW_TAG_subroutine_type ]
!818 = metadata !{metadata !819, metadata !620, metadata !156, metadata !156}
!819 = metadata !{i32 786434, null, metadata !"ap_range_ref<33, true>", metadata !142, i32 925, i32 0, i32 0, i32 0, i32 4, null, null, i32 0} ; [ DW_TAG_class_type ]
!820 = metadata !{i32 786478, i32 0, metadata !604, metadata !"operator()", metadata !"operator()", metadata !"_ZN11ap_int_baseILi33ELb1ELb1EEclEii", metadata !142, i32 2068, metadata !817, i1 false, i1 false, i32 0, i32 0, null, i32 256, i1 false, null, null, i32 0, metadata !121, i32 2068} ; [ DW_TAG_subprogram ]
!821 = metadata !{i32 786478, i32 0, metadata !604, metadata !"range", metadata !"range", metadata !"_ZNK11ap_int_baseILi33ELb1ELb1EE5rangeEii", metadata !142, i32 2074, metadata !822, i1 false, i1 false, i32 0, i32 0, null, i32 256, i1 false, null, null, i32 0, metadata !121, i32 2074} ; [ DW_TAG_subprogram ]
!822 = metadata !{i32 786453, i32 0, metadata !"", i32 0, i32 0, i64 0, i64 0, i64 0, i32 0, null, metadata !823, i32 0, i32 0} ; [ DW_TAG_subroutine_type ]
!823 = metadata !{metadata !819, metadata !737, metadata !156, metadata !156}
!824 = metadata !{i32 786478, i32 0, metadata !604, metadata !"operator()", metadata !"operator()", metadata !"_ZNK11ap_int_baseILi33ELb1ELb1EEclEii", metadata !142, i32 2080, metadata !822, i1 false, i1 false, i32 0, i32 0, null, i32 256, i1 false, null, null, i32 0, metadata !121, i32 2080} ; [ DW_TAG_subprogram ]
!825 = metadata !{i32 786478, i32 0, metadata !604, metadata !"operator[]", metadata !"operator[]", metadata !"_ZN11ap_int_baseILi33ELb1ELb1EEixEi", metadata !142, i32 2099, metadata !826, i1 false, i1 false, i32 0, i32 0, null, i32 256, i1 false, null, null, i32 0, metadata !121, i32 2099} ; [ DW_TAG_subprogram ]
!826 = metadata !{i32 786453, i32 0, metadata !"", i32 0, i32 0, i64 0, i64 0, i64 0, i32 0, null, metadata !827, i32 0, i32 0} ; [ DW_TAG_subroutine_type ]
!827 = metadata !{metadata !828, metadata !620, metadata !156}
!828 = metadata !{i32 786434, null, metadata !"ap_bit_ref<33, true>", metadata !142, i32 1249, i64 128, i64 64, i32 0, i32 0, null, metadata !829, i32 0, null, metadata !862} ; [ DW_TAG_class_type ]
!829 = metadata !{metadata !830, metadata !831, metadata !832, metadata !838, metadata !842, metadata !846, metadata !847, metadata !851, metadata !854, metadata !855, metadata !858, metadata !859}
!830 = metadata !{i32 786445, metadata !828, metadata !"d_bv", metadata !142, i32 1250, i64 64, i64 64, i64 0, i32 0, metadata !695} ; [ DW_TAG_member ]
!831 = metadata !{i32 786445, metadata !828, metadata !"d_index", metadata !142, i32 1251, i64 32, i64 32, i64 64, i32 0, metadata !156} ; [ DW_TAG_member ]
!832 = metadata !{i32 786478, i32 0, metadata !828, metadata !"ap_bit_ref", metadata !"ap_bit_ref", metadata !"", metadata !142, i32 1254, metadata !833, i1 false, i1 false, i32 0, i32 0, null, i32 256, i1 false, null, null, i32 0, metadata !121, i32 1254} ; [ DW_TAG_subprogram ]
!833 = metadata !{i32 786453, i32 0, metadata !"", i32 0, i32 0, i64 0, i64 0, i64 0, i32 0, null, metadata !834, i32 0, i32 0} ; [ DW_TAG_subroutine_type ]
!834 = metadata !{null, metadata !835, metadata !836}
!835 = metadata !{i32 786447, i32 0, metadata !"", i32 0, i32 0, i64 64, i64 64, i64 0, i32 64, metadata !828} ; [ DW_TAG_pointer_type ]
!836 = metadata !{i32 786448, null, null, null, i32 0, i64 0, i64 0, i64 0, i32 0, metadata !837} ; [ DW_TAG_reference_type ]
!837 = metadata !{i32 786470, null, metadata !"", null, i32 0, i64 0, i64 0, i64 0, i32 0, metadata !828} ; [ DW_TAG_const_type ]
!838 = metadata !{i32 786478, i32 0, metadata !828, metadata !"ap_bit_ref", metadata !"ap_bit_ref", metadata !"", metadata !142, i32 1257, metadata !839, i1 false, i1 false, i32 0, i32 0, null, i32 256, i1 false, null, null, i32 0, metadata !121, i32 1257} ; [ DW_TAG_subprogram ]
!839 = metadata !{i32 786453, i32 0, metadata !"", i32 0, i32 0, i64 0, i64 0, i64 0, i32 0, null, metadata !840, i32 0, i32 0} ; [ DW_TAG_subroutine_type ]
!840 = metadata !{null, metadata !835, metadata !841, metadata !156}
!841 = metadata !{i32 786447, null, metadata !"", null, i32 0, i64 64, i64 64, i64 0, i32 0, metadata !604} ; [ DW_TAG_pointer_type ]
!842 = metadata !{i32 786478, i32 0, metadata !828, metadata !"operator _Bool", metadata !"operator _Bool", metadata !"_ZNK10ap_bit_refILi33ELb1EEcvbEv", metadata !142, i32 1259, metadata !843, i1 false, i1 false, i32 0, i32 0, null, i32 256, i1 false, null, null, i32 0, metadata !121, i32 1259} ; [ DW_TAG_subprogram ]
!843 = metadata !{i32 786453, i32 0, metadata !"", i32 0, i32 0, i64 0, i64 0, i64 0, i32 0, null, metadata !844, i32 0, i32 0} ; [ DW_TAG_subroutine_type ]
!844 = metadata !{metadata !158, metadata !845}
!845 = metadata !{i32 786447, i32 0, metadata !"", i32 0, i32 0, i64 64, i64 64, i64 0, i32 64, metadata !837} ; [ DW_TAG_pointer_type ]
!846 = metadata !{i32 786478, i32 0, metadata !828, metadata !"to_bool", metadata !"to_bool", metadata !"_ZNK10ap_bit_refILi33ELb1EE7to_boolEv", metadata !142, i32 1260, metadata !843, i1 false, i1 false, i32 0, i32 0, null, i32 256, i1 false, null, null, i32 0, metadata !121, i32 1260} ; [ DW_TAG_subprogram ]
!847 = metadata !{i32 786478, i32 0, metadata !828, metadata !"operator=", metadata !"operator=", metadata !"_ZN10ap_bit_refILi33ELb1EEaSEy", metadata !142, i32 1262, metadata !848, i1 false, i1 false, i32 0, i32 0, null, i32 256, i1 false, null, null, i32 0, metadata !121, i32 1262} ; [ DW_TAG_subprogram ]
!848 = metadata !{i32 786453, i32 0, metadata !"", i32 0, i32 0, i64 0, i64 0, i64 0, i32 0, null, metadata !849, i32 0, i32 0} ; [ DW_TAG_subroutine_type ]
!849 = metadata !{metadata !850, metadata !835, metadata !220}
!850 = metadata !{i32 786448, null, null, null, i32 0, i64 0, i64 0, i64 0, i32 0, metadata !828} ; [ DW_TAG_reference_type ]
!851 = metadata !{i32 786478, i32 0, metadata !828, metadata !"operator=", metadata !"operator=", metadata !"_ZN10ap_bit_refILi33ELb1EEaSERKS0_", metadata !142, i32 1282, metadata !852, i1 false, i1 false, i32 0, i32 0, null, i32 256, i1 false, null, null, i32 0, metadata !121, i32 1282} ; [ DW_TAG_subprogram ]
!852 = metadata !{i32 786453, i32 0, metadata !"", i32 0, i32 0, i64 0, i64 0, i64 0, i32 0, null, metadata !853, i32 0, i32 0} ; [ DW_TAG_subroutine_type ]
!853 = metadata !{metadata !850, metadata !835, metadata !836}
!854 = metadata !{i32 786478, i32 0, metadata !828, metadata !"get", metadata !"get", metadata !"_ZNK10ap_bit_refILi33ELb1EE3getEv", metadata !142, i32 1390, metadata !843, i1 false, i1 false, i32 0, i32 0, null, i32 256, i1 false, null, null, i32 0, metadata !121, i32 1390} ; [ DW_TAG_subprogram ]
!855 = metadata !{i32 786478, i32 0, metadata !828, metadata !"get", metadata !"get", metadata !"_ZN10ap_bit_refILi33ELb1EE3getEv", metadata !142, i32 1394, metadata !856, i1 false, i1 false, i32 0, i32 0, null, i32 256, i1 false, null, null, i32 0, metadata !121, i32 1394} ; [ DW_TAG_subprogram ]
!856 = metadata !{i32 786453, i32 0, metadata !"", i32 0, i32 0, i64 0, i64 0, i64 0, i32 0, null, metadata !857, i32 0, i32 0} ; [ DW_TAG_subroutine_type ]
!857 = metadata !{metadata !158, metadata !835}
!858 = metadata !{i32 786478, i32 0, metadata !828, metadata !"operator~", metadata !"operator~", metadata !"_ZNK10ap_bit_refILi33ELb1EEcoEv", metadata !142, i32 1403, metadata !843, i1 false, i1 false, i32 0, i32 0, null, i32 256, i1 false, null, null, i32 0, metadata !121, i32 1403} ; [ DW_TAG_subprogram ]
!859 = metadata !{i32 786478, i32 0, metadata !828, metadata !"length", metadata !"length", metadata !"_ZNK10ap_bit_refILi33ELb1EE6lengthEv", metadata !142, i32 1408, metadata !860, i1 false, i1 false, i32 0, i32 0, null, i32 256, i1 false, null, null, i32 0, metadata !121, i32 1408} ; [ DW_TAG_subprogram ]
!860 = metadata !{i32 786453, i32 0, metadata !"", i32 0, i32 0, i64 0, i64 0, i64 0, i32 0, null, metadata !861, i32 0, i32 0} ; [ DW_TAG_subroutine_type ]
!861 = metadata !{metadata !156, metadata !845}
!862 = metadata !{metadata !863, metadata !391}
!863 = metadata !{i32 786480, null, metadata !"_AP_W", metadata !156, i64 33, null, i32 0, i32 0} ; [ DW_TAG_template_value_parameter ]
!864 = metadata !{i32 786478, i32 0, metadata !604, metadata !"operator[]", metadata !"operator[]", metadata !"_ZNK11ap_int_baseILi33ELb1ELb1EEixEi", metadata !142, i32 2113, metadata !788, i1 false, i1 false, i32 0, i32 0, null, i32 256, i1 false, null, null, i32 0, metadata !121, i32 2113} ; [ DW_TAG_subprogram ]
!865 = metadata !{i32 786478, i32 0, metadata !604, metadata !"bit", metadata !"bit", metadata !"_ZN11ap_int_baseILi33ELb1ELb1EE3bitEi", metadata !142, i32 2127, metadata !826, i1 false, i1 false, i32 0, i32 0, null, i32 256, i1 false, null, null, i32 0, metadata !121, i32 2127} ; [ DW_TAG_subprogram ]
!866 = metadata !{i32 786478, i32 0, metadata !604, metadata !"bit", metadata !"bit", metadata !"_ZNK11ap_int_baseILi33ELb1ELb1EE3bitEi", metadata !142, i32 2141, metadata !788, i1 false, i1 false, i32 0, i32 0, null, i32 256, i1 false, null, null, i32 0, metadata !121, i32 2141} ; [ DW_TAG_subprogram ]
!867 = metadata !{i32 786478, i32 0, metadata !604, metadata !"and_reduce", metadata !"and_reduce", metadata !"_ZN11ap_int_baseILi33ELb1ELb1EE10and_reduceEv", metadata !142, i32 2321, metadata !868, i1 false, i1 false, i32 0, i32 0, null, i32 256, i1 false, null, null, i32 0, metadata !121, i32 2321} ; [ DW_TAG_subprogram ]
!868 = metadata !{i32 786453, i32 0, metadata !"", i32 0, i32 0, i64 0, i64 0, i64 0, i32 0, null, metadata !869, i32 0, i32 0} ; [ DW_TAG_subroutine_type ]
!869 = metadata !{metadata !158, metadata !620}
!870 = metadata !{i32 786478, i32 0, metadata !604, metadata !"nand_reduce", metadata !"nand_reduce", metadata !"_ZN11ap_int_baseILi33ELb1ELb1EE11nand_reduceEv", metadata !142, i32 2324, metadata !868, i1 false, i1 false, i32 0, i32 0, null, i32 256, i1 false, null, null, i32 0, metadata !121, i32 2324} ; [ DW_TAG_subprogram ]
!871 = metadata !{i32 786478, i32 0, metadata !604, metadata !"or_reduce", metadata !"or_reduce", metadata !"_ZN11ap_int_baseILi33ELb1ELb1EE9or_reduceEv", metadata !142, i32 2327, metadata !868, i1 false, i1 false, i32 0, i32 0, null, i32 256, i1 false, null, null, i32 0, metadata !121, i32 2327} ; [ DW_TAG_subprogram ]
!872 = metadata !{i32 786478, i32 0, metadata !604, metadata !"nor_reduce", metadata !"nor_reduce", metadata !"_ZN11ap_int_baseILi33ELb1ELb1EE10nor_reduceEv", metadata !142, i32 2330, metadata !868, i1 false, i1 false, i32 0, i32 0, null, i32 256, i1 false, null, null, i32 0, metadata !121, i32 2330} ; [ DW_TAG_subprogram ]
!873 = metadata !{i32 786478, i32 0, metadata !604, metadata !"xor_reduce", metadata !"xor_reduce", metadata !"_ZN11ap_int_baseILi33ELb1ELb1EE10xor_reduceEv", metadata !142, i32 2333, metadata !868, i1 false, i1 false, i32 0, i32 0, null, i32 256, i1 false, null, null, i32 0, metadata !121, i32 2333} ; [ DW_TAG_subprogram ]
!874 = metadata !{i32 786478, i32 0, metadata !604, metadata !"xnor_reduce", metadata !"xnor_reduce", metadata !"_ZN11ap_int_baseILi33ELb1ELb1EE11xnor_reduceEv", metadata !142, i32 2336, metadata !868, i1 false, i1 false, i32 0, i32 0, null, i32 256, i1 false, null, null, i32 0, metadata !121, i32 2336} ; [ DW_TAG_subprogram ]
!875 = metadata !{i32 786478, i32 0, metadata !604, metadata !"and_reduce", metadata !"and_reduce", metadata !"_ZNK11ap_int_baseILi33ELb1ELb1EE10and_reduceEv", metadata !142, i32 2340, metadata !739, i1 false, i1 false, i32 0, i32 0, null, i32 256, i1 false, null, null, i32 0, metadata !121, i32 2340} ; [ DW_TAG_subprogram ]
!876 = metadata !{i32 786478, i32 0, metadata !604, metadata !"nand_reduce", metadata !"nand_reduce", metadata !"_ZNK11ap_int_baseILi33ELb1ELb1EE11nand_reduceEv", metadata !142, i32 2343, metadata !739, i1 false, i1 false, i32 0, i32 0, null, i32 256, i1 false, null, null, i32 0, metadata !121, i32 2343} ; [ DW_TAG_subprogram ]
!877 = metadata !{i32 786478, i32 0, metadata !604, metadata !"or_reduce", metadata !"or_reduce", metadata !"_ZNK11ap_int_baseILi33ELb1ELb1EE9or_reduceEv", metadata !142, i32 2346, metadata !739, i1 false, i1 false, i32 0, i32 0, null, i32 256, i1 false, null, null, i32 0, metadata !121, i32 2346} ; [ DW_TAG_subprogram ]
!878 = metadata !{i32 786478, i32 0, metadata !604, metadata !"nor_reduce", metadata !"nor_reduce", metadata !"_ZNK11ap_int_baseILi33ELb1ELb1EE10nor_reduceEv", metadata !142, i32 2349, metadata !739, i1 false, i1 false, i32 0, i32 0, null, i32 256, i1 false, null, null, i32 0, metadata !121, i32 2349} ; [ DW_TAG_subprogram ]
!879 = metadata !{i32 786478, i32 0, metadata !604, metadata !"xor_reduce", metadata !"xor_reduce", metadata !"_ZNK11ap_int_baseILi33ELb1ELb1EE10xor_reduceEv", metadata !142, i32 2352, metadata !739, i1 false, i1 false, i32 0, i32 0, null, i32 256, i1 false, null, null, i32 0, metadata !121, i32 2352} ; [ DW_TAG_subprogram ]
!880 = metadata !{i32 786478, i32 0, metadata !604, metadata !"xnor_reduce", metadata !"xnor_reduce", metadata !"_ZNK11ap_int_baseILi33ELb1ELb1EE11xnor_reduceEv", metadata !142, i32 2355, metadata !739, i1 false, i1 false, i32 0, i32 0, null, i32 256, i1 false, null, null, i32 0, metadata !121, i32 2355} ; [ DW_TAG_subprogram ]
!881 = metadata !{i32 786478, i32 0, metadata !604, metadata !"to_string", metadata !"to_string", metadata !"_ZNK11ap_int_baseILi33ELb1ELb1EE9to_stringEPci8BaseModeb", metadata !142, i32 2362, metadata !882, i1 false, i1 false, i32 0, i32 0, null, i32 256, i1 false, null, null, i32 0, metadata !121, i32 2362} ; [ DW_TAG_subprogram ]
!882 = metadata !{i32 786453, i32 0, metadata !"", i32 0, i32 0, i64 0, i64 0, i64 0, i32 0, null, metadata !883, i32 0, i32 0} ; [ DW_TAG_subroutine_type ]
!883 = metadata !{null, metadata !737, metadata !884, metadata !156, metadata !885, metadata !158}
!884 = metadata !{i32 786447, null, metadata !"", null, i32 0, i64 64, i64 64, i64 0, i32 0, metadata !239} ; [ DW_TAG_pointer_type ]
!885 = metadata !{i32 786436, null, metadata !"BaseMode", metadata !142, i32 603, i64 5, i64 8, i32 0, i32 0, null, metadata !886, i32 0, i32 0} ; [ DW_TAG_enumeration_type ]
!886 = metadata !{metadata !887, metadata !888, metadata !889, metadata !890}
!887 = metadata !{i32 786472, metadata !"SC_BIN", i64 2} ; [ DW_TAG_enumerator ]
!888 = metadata !{i32 786472, metadata !"SC_OCT", i64 8} ; [ DW_TAG_enumerator ]
!889 = metadata !{i32 786472, metadata !"SC_DEC", i64 10} ; [ DW_TAG_enumerator ]
!890 = metadata !{i32 786472, metadata !"SC_HEX", i64 16} ; [ DW_TAG_enumerator ]
!891 = metadata !{i32 786478, i32 0, metadata !604, metadata !"to_string", metadata !"to_string", metadata !"_ZNK11ap_int_baseILi33ELb1ELb1EE9to_stringE8BaseModeb", metadata !142, i32 2389, metadata !892, i1 false, i1 false, i32 0, i32 0, null, i32 256, i1 false, null, null, i32 0, metadata !121, i32 2389} ; [ DW_TAG_subprogram ]
!892 = metadata !{i32 786453, i32 0, metadata !"", i32 0, i32 0, i64 0, i64 0, i64 0, i32 0, null, metadata !893, i32 0, i32 0} ; [ DW_TAG_subroutine_type ]
!893 = metadata !{metadata !884, metadata !737, metadata !885, metadata !158}
!894 = metadata !{i32 786478, i32 0, metadata !604, metadata !"to_string", metadata !"to_string", metadata !"_ZNK11ap_int_baseILi33ELb1ELb1EE9to_stringEab", metadata !142, i32 2393, metadata !895, i1 false, i1 false, i32 0, i32 0, null, i32 256, i1 false, null, null, i32 0, metadata !121, i32 2393} ; [ DW_TAG_subprogram ]
!895 = metadata !{i32 786453, i32 0, metadata !"", i32 0, i32 0, i64 0, i64 0, i64 0, i32 0, null, metadata !896, i32 0, i32 0} ; [ DW_TAG_subroutine_type ]
!896 = metadata !{metadata !884, metadata !737, metadata !183, metadata !158}
!897 = metadata !{metadata !863, metadata !391, metadata !898}
!898 = metadata !{i32 786480, null, metadata !"_AP_C", metadata !158, i64 1, null, i32 0, i32 0} ; [ DW_TAG_template_value_parameter ]
!899 = metadata !{i32 786478, i32 0, metadata !582, metadata !"ap_int_base<33, true>", metadata !"ap_int_base<33, true>", metadata !"", metadata !142, i32 1509, metadata !900, i1 false, i1 false, i32 0, i32 0, null, i32 256, i1 false, null, metadata !624, i32 0, metadata !121, i32 1509} ; [ DW_TAG_subprogram ]
!900 = metadata !{i32 786453, i32 0, metadata !"", i32 0, i32 0, i64 0, i64 0, i64 0, i32 0, null, metadata !901, i32 0, i32 0} ; [ DW_TAG_subroutine_type ]
!901 = metadata !{null, metadata !598, metadata !630}
!902 = metadata !{i32 786478, i32 0, metadata !582, metadata !"ap_int_base", metadata !"ap_int_base", metadata !"", metadata !142, i32 1516, metadata !903, i1 false, i1 false, i32 0, i32 0, null, i32 384, i1 false, null, null, i32 0, metadata !121, i32 1516} ; [ DW_TAG_subprogram ]
!903 = metadata !{i32 786453, i32 0, metadata !"", i32 0, i32 0, i64 0, i64 0, i64 0, i32 0, null, metadata !904, i32 0, i32 0} ; [ DW_TAG_subroutine_type ]
!904 = metadata !{null, metadata !598, metadata !158}
!905 = metadata !{i32 786478, i32 0, metadata !582, metadata !"ap_int_base", metadata !"ap_int_base", metadata !"", metadata !142, i32 1517, metadata !906, i1 false, i1 false, i32 0, i32 0, null, i32 384, i1 false, null, null, i32 0, metadata !121, i32 1517} ; [ DW_TAG_subprogram ]
!906 = metadata !{i32 786453, i32 0, metadata !"", i32 0, i32 0, i64 0, i64 0, i64 0, i32 0, null, metadata !907, i32 0, i32 0} ; [ DW_TAG_subroutine_type ]
!907 = metadata !{null, metadata !598, metadata !183}
!908 = metadata !{i32 786478, i32 0, metadata !582, metadata !"ap_int_base", metadata !"ap_int_base", metadata !"", metadata !142, i32 1518, metadata !909, i1 false, i1 false, i32 0, i32 0, null, i32 384, i1 false, null, null, i32 0, metadata !121, i32 1518} ; [ DW_TAG_subprogram ]
!909 = metadata !{i32 786453, i32 0, metadata !"", i32 0, i32 0, i64 0, i64 0, i64 0, i32 0, null, metadata !910, i32 0, i32 0} ; [ DW_TAG_subroutine_type ]
!910 = metadata !{null, metadata !598, metadata !187}
!911 = metadata !{i32 786478, i32 0, metadata !582, metadata !"ap_int_base", metadata !"ap_int_base", metadata !"", metadata !142, i32 1519, metadata !912, i1 false, i1 false, i32 0, i32 0, null, i32 384, i1 false, null, null, i32 0, metadata !121, i32 1519} ; [ DW_TAG_subprogram ]
!912 = metadata !{i32 786453, i32 0, metadata !"", i32 0, i32 0, i64 0, i64 0, i64 0, i32 0, null, metadata !913, i32 0, i32 0} ; [ DW_TAG_subroutine_type ]
!913 = metadata !{null, metadata !598, metadata !191}
!914 = metadata !{i32 786478, i32 0, metadata !582, metadata !"ap_int_base", metadata !"ap_int_base", metadata !"", metadata !142, i32 1520, metadata !915, i1 false, i1 false, i32 0, i32 0, null, i32 384, i1 false, null, null, i32 0, metadata !121, i32 1520} ; [ DW_TAG_subprogram ]
!915 = metadata !{i32 786453, i32 0, metadata !"", i32 0, i32 0, i64 0, i64 0, i64 0, i32 0, null, metadata !916, i32 0, i32 0} ; [ DW_TAG_subroutine_type ]
!916 = metadata !{null, metadata !598, metadata !195}
!917 = metadata !{i32 786478, i32 0, metadata !582, metadata !"ap_int_base", metadata !"ap_int_base", metadata !"", metadata !142, i32 1521, metadata !918, i1 false, i1 false, i32 0, i32 0, null, i32 384, i1 false, null, null, i32 0, metadata !121, i32 1521} ; [ DW_TAG_subprogram ]
!918 = metadata !{i32 786453, i32 0, metadata !"", i32 0, i32 0, i64 0, i64 0, i64 0, i32 0, null, metadata !919, i32 0, i32 0} ; [ DW_TAG_subroutine_type ]
!919 = metadata !{null, metadata !598, metadata !156}
!920 = metadata !{i32 786478, i32 0, metadata !582, metadata !"ap_int_base", metadata !"ap_int_base", metadata !"", metadata !142, i32 1522, metadata !921, i1 false, i1 false, i32 0, i32 0, null, i32 384, i1 false, null, null, i32 0, metadata !121, i32 1522} ; [ DW_TAG_subprogram ]
!921 = metadata !{i32 786453, i32 0, metadata !"", i32 0, i32 0, i64 0, i64 0, i64 0, i32 0, null, metadata !922, i32 0, i32 0} ; [ DW_TAG_subroutine_type ]
!922 = metadata !{null, metadata !598, metadata !202}
!923 = metadata !{i32 786478, i32 0, metadata !582, metadata !"ap_int_base", metadata !"ap_int_base", metadata !"", metadata !142, i32 1523, metadata !924, i1 false, i1 false, i32 0, i32 0, null, i32 384, i1 false, null, null, i32 0, metadata !121, i32 1523} ; [ DW_TAG_subprogram ]
!924 = metadata !{i32 786453, i32 0, metadata !"", i32 0, i32 0, i64 0, i64 0, i64 0, i32 0, null, metadata !925, i32 0, i32 0} ; [ DW_TAG_subroutine_type ]
!925 = metadata !{null, metadata !598, metadata !206}
!926 = metadata !{i32 786478, i32 0, metadata !582, metadata !"ap_int_base", metadata !"ap_int_base", metadata !"", metadata !142, i32 1524, metadata !927, i1 false, i1 false, i32 0, i32 0, null, i32 384, i1 false, null, null, i32 0, metadata !121, i32 1524} ; [ DW_TAG_subprogram ]
!927 = metadata !{i32 786453, i32 0, metadata !"", i32 0, i32 0, i64 0, i64 0, i64 0, i32 0, null, metadata !928, i32 0, i32 0} ; [ DW_TAG_subroutine_type ]
!928 = metadata !{null, metadata !598, metadata !210}
!929 = metadata !{i32 786478, i32 0, metadata !582, metadata !"ap_int_base", metadata !"ap_int_base", metadata !"", metadata !142, i32 1525, metadata !930, i1 false, i1 false, i32 0, i32 0, null, i32 384, i1 false, null, null, i32 0, metadata !121, i32 1525} ; [ DW_TAG_subprogram ]
!930 = metadata !{i32 786453, i32 0, metadata !"", i32 0, i32 0, i64 0, i64 0, i64 0, i32 0, null, metadata !931, i32 0, i32 0} ; [ DW_TAG_subroutine_type ]
!931 = metadata !{null, metadata !598, metadata !214}
!932 = metadata !{i32 786478, i32 0, metadata !582, metadata !"ap_int_base", metadata !"ap_int_base", metadata !"", metadata !142, i32 1526, metadata !933, i1 false, i1 false, i32 0, i32 0, null, i32 384, i1 false, null, null, i32 0, metadata !121, i32 1526} ; [ DW_TAG_subprogram ]
!933 = metadata !{i32 786453, i32 0, metadata !"", i32 0, i32 0, i64 0, i64 0, i64 0, i32 0, null, metadata !934, i32 0, i32 0} ; [ DW_TAG_subroutine_type ]
!934 = metadata !{null, metadata !598, metadata !219}
!935 = metadata !{i32 786478, i32 0, metadata !582, metadata !"ap_int_base", metadata !"ap_int_base", metadata !"", metadata !142, i32 1527, metadata !936, i1 false, i1 false, i32 0, i32 0, null, i32 384, i1 false, null, null, i32 0, metadata !121, i32 1527} ; [ DW_TAG_subprogram ]
!936 = metadata !{i32 786453, i32 0, metadata !"", i32 0, i32 0, i64 0, i64 0, i64 0, i32 0, null, metadata !937, i32 0, i32 0} ; [ DW_TAG_subroutine_type ]
!937 = metadata !{null, metadata !598, metadata !224}
!938 = metadata !{i32 786478, i32 0, metadata !582, metadata !"ap_int_base", metadata !"ap_int_base", metadata !"", metadata !142, i32 1528, metadata !939, i1 false, i1 false, i32 0, i32 0, null, i32 384, i1 false, null, null, i32 0, metadata !121, i32 1528} ; [ DW_TAG_subprogram ]
!939 = metadata !{i32 786453, i32 0, metadata !"", i32 0, i32 0, i64 0, i64 0, i64 0, i32 0, null, metadata !940, i32 0, i32 0} ; [ DW_TAG_subroutine_type ]
!940 = metadata !{null, metadata !598, metadata !229}
!941 = metadata !{i32 786478, i32 0, metadata !582, metadata !"ap_int_base", metadata !"ap_int_base", metadata !"", metadata !142, i32 1529, metadata !942, i1 false, i1 false, i32 0, i32 0, null, i32 384, i1 false, null, null, i32 0, metadata !121, i32 1529} ; [ DW_TAG_subprogram ]
!942 = metadata !{i32 786453, i32 0, metadata !"", i32 0, i32 0, i64 0, i64 0, i64 0, i32 0, null, metadata !943, i32 0, i32 0} ; [ DW_TAG_subroutine_type ]
!943 = metadata !{null, metadata !598, metadata !233}
!944 = metadata !{i32 786478, i32 0, metadata !582, metadata !"ap_int_base", metadata !"ap_int_base", metadata !"", metadata !142, i32 1556, metadata !945, i1 false, i1 false, i32 0, i32 0, null, i32 256, i1 false, null, null, i32 0, metadata !121, i32 1556} ; [ DW_TAG_subprogram ]
!945 = metadata !{i32 786453, i32 0, metadata !"", i32 0, i32 0, i64 0, i64 0, i64 0, i32 0, null, metadata !946, i32 0, i32 0} ; [ DW_TAG_subroutine_type ]
!946 = metadata !{null, metadata !598, metadata !237}
!947 = metadata !{i32 786478, i32 0, metadata !582, metadata !"ap_int_base", metadata !"ap_int_base", metadata !"", metadata !142, i32 1563, metadata !948, i1 false, i1 false, i32 0, i32 0, null, i32 256, i1 false, null, null, i32 0, metadata !121, i32 1563} ; [ DW_TAG_subprogram ]
!948 = metadata !{i32 786453, i32 0, metadata !"", i32 0, i32 0, i64 0, i64 0, i64 0, i32 0, null, metadata !949, i32 0, i32 0} ; [ DW_TAG_subroutine_type ]
!949 = metadata !{null, metadata !598, metadata !237, metadata !183}
!950 = metadata !{i32 786478, i32 0, metadata !582, metadata !"read", metadata !"read", metadata !"_ZNV11ap_int_baseILi12ELb1ELb1EE4readEv", metadata !142, i32 1584, metadata !951, i1 false, i1 false, i32 0, i32 0, null, i32 256, i1 false, null, null, i32 0, metadata !121, i32 1584} ; [ DW_TAG_subprogram ]
!951 = metadata !{i32 786453, i32 0, metadata !"", i32 0, i32 0, i64 0, i64 0, i64 0, i32 0, null, metadata !952, i32 0, i32 0} ; [ DW_TAG_subroutine_type ]
!952 = metadata !{metadata !582, metadata !953}
!953 = metadata !{i32 786447, i32 0, metadata !"", i32 0, i32 0, i64 64, i64 64, i64 0, i32 64, metadata !954} ; [ DW_TAG_pointer_type ]
!954 = metadata !{i32 786485, null, metadata !"", null, i32 0, i64 0, i64 0, i64 0, i32 0, metadata !582} ; [ DW_TAG_volatile_type ]
!955 = metadata !{i32 786478, i32 0, metadata !582, metadata !"write", metadata !"write", metadata !"_ZNV11ap_int_baseILi12ELb1ELb1EE5writeERKS0_", metadata !142, i32 1590, metadata !956, i1 false, i1 false, i32 0, i32 0, null, i32 256, i1 false, null, null, i32 0, metadata !121, i32 1590} ; [ DW_TAG_subprogram ]
!956 = metadata !{i32 786453, i32 0, metadata !"", i32 0, i32 0, i64 0, i64 0, i64 0, i32 0, null, metadata !957, i32 0, i32 0} ; [ DW_TAG_subroutine_type ]
!957 = metadata !{null, metadata !953, metadata !958}
!958 = metadata !{i32 786448, null, null, null, i32 0, i64 0, i64 0, i64 0, i32 0, metadata !959} ; [ DW_TAG_reference_type ]
!959 = metadata !{i32 786470, null, metadata !"", null, i32 0, i64 0, i64 0, i64 0, i32 0, metadata !582} ; [ DW_TAG_const_type ]
!960 = metadata !{i32 786478, i32 0, metadata !582, metadata !"operator=<33, true>", metadata !"operator=<33, true>", metadata !"_ZNV11ap_int_baseILi12ELb1ELb1EEaSILi33ELb1EEEvRVKS_IXT_EXT0_EXleT_Li64EEE", metadata !142, i32 1598, metadata !961, i1 false, i1 false, i32 0, i32 0, null, i32 256, i1 false, null, metadata !624, i32 0, metadata !121, i32 1598} ; [ DW_TAG_subprogram ]
!961 = metadata !{i32 786453, i32 0, metadata !"", i32 0, i32 0, i64 0, i64 0, i64 0, i32 0, null, metadata !962, i32 0, i32 0} ; [ DW_TAG_subroutine_type ]
!962 = metadata !{null, metadata !953, metadata !630}
!963 = metadata !{i32 786478, i32 0, metadata !582, metadata !"operator=", metadata !"operator=", metadata !"_ZNV11ap_int_baseILi12ELb1ELb1EEaSERVKS0_", metadata !142, i32 1602, metadata !964, i1 false, i1 false, i32 0, i32 0, null, i32 256, i1 false, null, null, i32 0, metadata !121, i32 1602} ; [ DW_TAG_subprogram ]
!964 = metadata !{i32 786453, i32 0, metadata !"", i32 0, i32 0, i64 0, i64 0, i64 0, i32 0, null, metadata !965, i32 0, i32 0} ; [ DW_TAG_subroutine_type ]
!965 = metadata !{null, metadata !953, metadata !966}
!966 = metadata !{i32 786448, null, null, null, i32 0, i64 0, i64 0, i64 0, i32 0, metadata !967} ; [ DW_TAG_reference_type ]
!967 = metadata !{i32 786470, null, metadata !"", null, i32 0, i64 0, i64 0, i64 0, i32 0, metadata !954} ; [ DW_TAG_const_type ]
!968 = metadata !{i32 786478, i32 0, metadata !582, metadata !"operator=<33, true>", metadata !"operator=<33, true>", metadata !"_ZNV11ap_int_baseILi12ELb1ELb1EEaSILi33ELb1EEEvRKS_IXT_EXT0_EXleT_Li64EEE", metadata !142, i32 1607, metadata !969, i1 false, i1 false, i32 0, i32 0, null, i32 256, i1 false, null, metadata !624, i32 0, metadata !121, i32 1607} ; [ DW_TAG_subprogram ]
!969 = metadata !{i32 786453, i32 0, metadata !"", i32 0, i32 0, i64 0, i64 0, i64 0, i32 0, null, metadata !970, i32 0, i32 0} ; [ DW_TAG_subroutine_type ]
!970 = metadata !{null, metadata !953, metadata !602}
!971 = metadata !{i32 786478, i32 0, metadata !582, metadata !"operator=", metadata !"operator=", metadata !"_ZNV11ap_int_baseILi12ELb1ELb1EEaSERKS0_", metadata !142, i32 1611, metadata !956, i1 false, i1 false, i32 0, i32 0, null, i32 256, i1 false, null, null, i32 0, metadata !121, i32 1611} ; [ DW_TAG_subprogram ]
!972 = metadata !{i32 786478, i32 0, metadata !582, metadata !"operator=<33, true>", metadata !"operator=<33, true>", metadata !"_ZN11ap_int_baseILi12ELb1ELb1EEaSILi33ELb1EEERS0_RVKS_IXT_EXT0_EXleT_Li64EEE", metadata !142, i32 1623, metadata !973, i1 false, i1 false, i32 0, i32 0, null, i32 256, i1 false, null, metadata !624, i32 0, metadata !121, i32 1623} ; [ DW_TAG_subprogram ]
!973 = metadata !{i32 786453, i32 0, metadata !"", i32 0, i32 0, i64 0, i64 0, i64 0, i32 0, null, metadata !974, i32 0, i32 0} ; [ DW_TAG_subroutine_type ]
!974 = metadata !{metadata !975, metadata !598, metadata !630}
!975 = metadata !{i32 786448, null, null, null, i32 0, i64 0, i64 0, i64 0, i32 0, metadata !582} ; [ DW_TAG_reference_type ]
!976 = metadata !{i32 786478, i32 0, metadata !582, metadata !"operator=<33, true>", metadata !"operator=<33, true>", metadata !"_ZN11ap_int_baseILi12ELb1ELb1EEaSILi33ELb1EEERS0_RKS_IXT_EXT0_EXleT_Li64EEE", metadata !142, i32 1629, metadata !977, i1 false, i1 false, i32 0, i32 0, null, i32 256, i1 false, null, metadata !624, i32 0, metadata !121, i32 1629} ; [ DW_TAG_subprogram ]
!977 = metadata !{i32 786453, i32 0, metadata !"", i32 0, i32 0, i64 0, i64 0, i64 0, i32 0, null, metadata !978, i32 0, i32 0} ; [ DW_TAG_subroutine_type ]
!978 = metadata !{metadata !975, metadata !598, metadata !602}
!979 = metadata !{i32 786478, i32 0, metadata !582, metadata !"operator=", metadata !"operator=", metadata !"_ZN11ap_int_baseILi12ELb1ELb1EEaSERVKS0_", metadata !142, i32 1634, metadata !980, i1 false, i1 false, i32 0, i32 0, null, i32 256, i1 false, null, null, i32 0, metadata !121, i32 1634} ; [ DW_TAG_subprogram ]
!980 = metadata !{i32 786453, i32 0, metadata !"", i32 0, i32 0, i64 0, i64 0, i64 0, i32 0, null, metadata !981, i32 0, i32 0} ; [ DW_TAG_subroutine_type ]
!981 = metadata !{metadata !975, metadata !598, metadata !966}
!982 = metadata !{i32 786478, i32 0, metadata !582, metadata !"operator=", metadata !"operator=", metadata !"_ZN11ap_int_baseILi12ELb1ELb1EEaSERKS0_", metadata !142, i32 1639, metadata !983, i1 false, i1 false, i32 0, i32 0, null, i32 256, i1 false, null, null, i32 0, metadata !121, i32 1639} ; [ DW_TAG_subprogram ]
!983 = metadata !{i32 786453, i32 0, metadata !"", i32 0, i32 0, i64 0, i64 0, i64 0, i32 0, null, metadata !984, i32 0, i32 0} ; [ DW_TAG_subroutine_type ]
!984 = metadata !{metadata !975, metadata !598, metadata !958}
!985 = metadata !{i32 786478, i32 0, metadata !582, metadata !"operator=", metadata !"operator=", metadata !"_ZN11ap_int_baseILi12ELb1ELb1EEaSEPKc", metadata !142, i32 1643, metadata !986, i1 false, i1 false, i32 0, i32 0, null, i32 256, i1 false, null, null, i32 0, metadata !121, i32 1643} ; [ DW_TAG_subprogram ]
!986 = metadata !{i32 786453, i32 0, metadata !"", i32 0, i32 0, i64 0, i64 0, i64 0, i32 0, null, metadata !987, i32 0, i32 0} ; [ DW_TAG_subroutine_type ]
!987 = metadata !{metadata !975, metadata !598, metadata !237}
!988 = metadata !{i32 786478, i32 0, metadata !582, metadata !"set", metadata !"set", metadata !"_ZN11ap_int_baseILi12ELb1ELb1EE3setEPKca", metadata !142, i32 1651, metadata !989, i1 false, i1 false, i32 0, i32 0, null, i32 256, i1 false, null, null, i32 0, metadata !121, i32 1651} ; [ DW_TAG_subprogram ]
!989 = metadata !{i32 786453, i32 0, metadata !"", i32 0, i32 0, i64 0, i64 0, i64 0, i32 0, null, metadata !990, i32 0, i32 0} ; [ DW_TAG_subroutine_type ]
!990 = metadata !{metadata !975, metadata !598, metadata !237, metadata !183}
!991 = metadata !{i32 786478, i32 0, metadata !582, metadata !"operator=", metadata !"operator=", metadata !"_ZN11ap_int_baseILi12ELb1ELb1EEaSEa", metadata !142, i32 1665, metadata !992, i1 false, i1 false, i32 0, i32 0, null, i32 256, i1 false, null, null, i32 0, metadata !121, i32 1665} ; [ DW_TAG_subprogram ]
!992 = metadata !{i32 786453, i32 0, metadata !"", i32 0, i32 0, i64 0, i64 0, i64 0, i32 0, null, metadata !993, i32 0, i32 0} ; [ DW_TAG_subroutine_type ]
!993 = metadata !{metadata !975, metadata !598, metadata !183}
!994 = metadata !{i32 786478, i32 0, metadata !582, metadata !"operator=", metadata !"operator=", metadata !"_ZN11ap_int_baseILi12ELb1ELb1EEaSEh", metadata !142, i32 1666, metadata !995, i1 false, i1 false, i32 0, i32 0, null, i32 256, i1 false, null, null, i32 0, metadata !121, i32 1666} ; [ DW_TAG_subprogram ]
!995 = metadata !{i32 786453, i32 0, metadata !"", i32 0, i32 0, i64 0, i64 0, i64 0, i32 0, null, metadata !996, i32 0, i32 0} ; [ DW_TAG_subroutine_type ]
!996 = metadata !{metadata !975, metadata !598, metadata !187}
!997 = metadata !{i32 786478, i32 0, metadata !582, metadata !"operator=", metadata !"operator=", metadata !"_ZN11ap_int_baseILi12ELb1ELb1EEaSEs", metadata !142, i32 1667, metadata !998, i1 false, i1 false, i32 0, i32 0, null, i32 256, i1 false, null, null, i32 0, metadata !121, i32 1667} ; [ DW_TAG_subprogram ]
!998 = metadata !{i32 786453, i32 0, metadata !"", i32 0, i32 0, i64 0, i64 0, i64 0, i32 0, null, metadata !999, i32 0, i32 0} ; [ DW_TAG_subroutine_type ]
!999 = metadata !{metadata !975, metadata !598, metadata !191}
!1000 = metadata !{i32 786478, i32 0, metadata !582, metadata !"operator=", metadata !"operator=", metadata !"_ZN11ap_int_baseILi12ELb1ELb1EEaSEt", metadata !142, i32 1668, metadata !1001, i1 false, i1 false, i32 0, i32 0, null, i32 256, i1 false, null, null, i32 0, metadata !121, i32 1668} ; [ DW_TAG_subprogram ]
!1001 = metadata !{i32 786453, i32 0, metadata !"", i32 0, i32 0, i64 0, i64 0, i64 0, i32 0, null, metadata !1002, i32 0, i32 0} ; [ DW_TAG_subroutine_type ]
!1002 = metadata !{metadata !975, metadata !598, metadata !195}
!1003 = metadata !{i32 786478, i32 0, metadata !582, metadata !"operator=", metadata !"operator=", metadata !"_ZN11ap_int_baseILi12ELb1ELb1EEaSEi", metadata !142, i32 1669, metadata !1004, i1 false, i1 false, i32 0, i32 0, null, i32 256, i1 false, null, null, i32 0, metadata !121, i32 1669} ; [ DW_TAG_subprogram ]
!1004 = metadata !{i32 786453, i32 0, metadata !"", i32 0, i32 0, i64 0, i64 0, i64 0, i32 0, null, metadata !1005, i32 0, i32 0} ; [ DW_TAG_subroutine_type ]
!1005 = metadata !{metadata !975, metadata !598, metadata !156}
!1006 = metadata !{i32 786478, i32 0, metadata !582, metadata !"operator=", metadata !"operator=", metadata !"_ZN11ap_int_baseILi12ELb1ELb1EEaSEj", metadata !142, i32 1670, metadata !1007, i1 false, i1 false, i32 0, i32 0, null, i32 256, i1 false, null, null, i32 0, metadata !121, i32 1670} ; [ DW_TAG_subprogram ]
!1007 = metadata !{i32 786453, i32 0, metadata !"", i32 0, i32 0, i64 0, i64 0, i64 0, i32 0, null, metadata !1008, i32 0, i32 0} ; [ DW_TAG_subroutine_type ]
!1008 = metadata !{metadata !975, metadata !598, metadata !202}
!1009 = metadata !{i32 786478, i32 0, metadata !582, metadata !"operator=", metadata !"operator=", metadata !"_ZN11ap_int_baseILi12ELb1ELb1EEaSEx", metadata !142, i32 1671, metadata !1010, i1 false, i1 false, i32 0, i32 0, null, i32 256, i1 false, null, null, i32 0, metadata !121, i32 1671} ; [ DW_TAG_subprogram ]
!1010 = metadata !{i32 786453, i32 0, metadata !"", i32 0, i32 0, i64 0, i64 0, i64 0, i32 0, null, metadata !1011, i32 0, i32 0} ; [ DW_TAG_subroutine_type ]
!1011 = metadata !{metadata !975, metadata !598, metadata !214}
!1012 = metadata !{i32 786478, i32 0, metadata !582, metadata !"operator=", metadata !"operator=", metadata !"_ZN11ap_int_baseILi12ELb1ELb1EEaSEy", metadata !142, i32 1672, metadata !1013, i1 false, i1 false, i32 0, i32 0, null, i32 256, i1 false, null, null, i32 0, metadata !121, i32 1672} ; [ DW_TAG_subprogram ]
!1013 = metadata !{i32 786453, i32 0, metadata !"", i32 0, i32 0, i64 0, i64 0, i64 0, i32 0, null, metadata !1014, i32 0, i32 0} ; [ DW_TAG_subroutine_type ]
!1014 = metadata !{metadata !975, metadata !598, metadata !219}
!1015 = metadata !{i32 786478, i32 0, metadata !582, metadata !"operator short", metadata !"operator short", metadata !"_ZNK11ap_int_baseILi12ELb1ELb1EEcvsEv", metadata !142, i32 1710, metadata !1016, i1 false, i1 false, i32 0, i32 0, null, i32 256, i1 false, null, null, i32 0, metadata !121, i32 1710} ; [ DW_TAG_subprogram ]
!1016 = metadata !{i32 786453, i32 0, metadata !"", i32 0, i32 0, i64 0, i64 0, i64 0, i32 0, null, metadata !1017, i32 0, i32 0} ; [ DW_TAG_subroutine_type ]
!1017 = metadata !{metadata !1018, metadata !1019}
!1018 = metadata !{i32 786454, metadata !582, metadata !"RetType", metadata !142, i32 1458, i64 0, i64 0, i64 0, i32 0, metadata !501} ; [ DW_TAG_typedef ]
!1019 = metadata !{i32 786447, i32 0, metadata !"", i32 0, i32 0, i64 64, i64 64, i64 0, i32 64, metadata !959} ; [ DW_TAG_pointer_type ]
!1020 = metadata !{i32 786478, i32 0, metadata !582, metadata !"to_bool", metadata !"to_bool", metadata !"_ZNK11ap_int_baseILi12ELb1ELb1EE7to_boolEv", metadata !142, i32 1716, metadata !1021, i1 false, i1 false, i32 0, i32 0, null, i32 256, i1 false, null, null, i32 0, metadata !121, i32 1716} ; [ DW_TAG_subprogram ]
!1021 = metadata !{i32 786453, i32 0, metadata !"", i32 0, i32 0, i64 0, i64 0, i64 0, i32 0, null, metadata !1022, i32 0, i32 0} ; [ DW_TAG_subroutine_type ]
!1022 = metadata !{metadata !158, metadata !1019}
!1023 = metadata !{i32 786478, i32 0, metadata !582, metadata !"to_uchar", metadata !"to_uchar", metadata !"_ZNK11ap_int_baseILi12ELb1ELb1EE8to_ucharEv", metadata !142, i32 1717, metadata !1024, i1 false, i1 false, i32 0, i32 0, null, i32 256, i1 false, null, null, i32 0, metadata !121, i32 1717} ; [ DW_TAG_subprogram ]
!1024 = metadata !{i32 786453, i32 0, metadata !"", i32 0, i32 0, i64 0, i64 0, i64 0, i32 0, null, metadata !1025, i32 0, i32 0} ; [ DW_TAG_subroutine_type ]
!1025 = metadata !{metadata !187, metadata !1019}
!1026 = metadata !{i32 786478, i32 0, metadata !582, metadata !"to_char", metadata !"to_char", metadata !"_ZNK11ap_int_baseILi12ELb1ELb1EE7to_charEv", metadata !142, i32 1718, metadata !1027, i1 false, i1 false, i32 0, i32 0, null, i32 256, i1 false, null, null, i32 0, metadata !121, i32 1718} ; [ DW_TAG_subprogram ]
!1027 = metadata !{i32 786453, i32 0, metadata !"", i32 0, i32 0, i64 0, i64 0, i64 0, i32 0, null, metadata !1028, i32 0, i32 0} ; [ DW_TAG_subroutine_type ]
!1028 = metadata !{metadata !183, metadata !1019}
!1029 = metadata !{i32 786478, i32 0, metadata !582, metadata !"to_ushort", metadata !"to_ushort", metadata !"_ZNK11ap_int_baseILi12ELb1ELb1EE9to_ushortEv", metadata !142, i32 1719, metadata !1030, i1 false, i1 false, i32 0, i32 0, null, i32 256, i1 false, null, null, i32 0, metadata !121, i32 1719} ; [ DW_TAG_subprogram ]
!1030 = metadata !{i32 786453, i32 0, metadata !"", i32 0, i32 0, i64 0, i64 0, i64 0, i32 0, null, metadata !1031, i32 0, i32 0} ; [ DW_TAG_subroutine_type ]
!1031 = metadata !{metadata !195, metadata !1019}
!1032 = metadata !{i32 786478, i32 0, metadata !582, metadata !"to_short", metadata !"to_short", metadata !"_ZNK11ap_int_baseILi12ELb1ELb1EE8to_shortEv", metadata !142, i32 1720, metadata !1033, i1 false, i1 false, i32 0, i32 0, null, i32 256, i1 false, null, null, i32 0, metadata !121, i32 1720} ; [ DW_TAG_subprogram ]
!1033 = metadata !{i32 786453, i32 0, metadata !"", i32 0, i32 0, i64 0, i64 0, i64 0, i32 0, null, metadata !1034, i32 0, i32 0} ; [ DW_TAG_subroutine_type ]
!1034 = metadata !{metadata !191, metadata !1019}
!1035 = metadata !{i32 786478, i32 0, metadata !582, metadata !"to_int", metadata !"to_int", metadata !"_ZNK11ap_int_baseILi12ELb1ELb1EE6to_intEv", metadata !142, i32 1721, metadata !1036, i1 false, i1 false, i32 0, i32 0, null, i32 256, i1 false, null, null, i32 0, metadata !121, i32 1721} ; [ DW_TAG_subprogram ]
!1036 = metadata !{i32 786453, i32 0, metadata !"", i32 0, i32 0, i64 0, i64 0, i64 0, i32 0, null, metadata !1037, i32 0, i32 0} ; [ DW_TAG_subroutine_type ]
!1037 = metadata !{metadata !156, metadata !1019}
!1038 = metadata !{i32 786478, i32 0, metadata !582, metadata !"to_uint", metadata !"to_uint", metadata !"_ZNK11ap_int_baseILi12ELb1ELb1EE7to_uintEv", metadata !142, i32 1722, metadata !1039, i1 false, i1 false, i32 0, i32 0, null, i32 256, i1 false, null, null, i32 0, metadata !121, i32 1722} ; [ DW_TAG_subprogram ]
!1039 = metadata !{i32 786453, i32 0, metadata !"", i32 0, i32 0, i64 0, i64 0, i64 0, i32 0, null, metadata !1040, i32 0, i32 0} ; [ DW_TAG_subroutine_type ]
!1040 = metadata !{metadata !202, metadata !1019}
!1041 = metadata !{i32 786478, i32 0, metadata !582, metadata !"to_long", metadata !"to_long", metadata !"_ZNK11ap_int_baseILi12ELb1ELb1EE7to_longEv", metadata !142, i32 1723, metadata !1042, i1 false, i1 false, i32 0, i32 0, null, i32 256, i1 false, null, null, i32 0, metadata !121, i32 1723} ; [ DW_TAG_subprogram ]
!1042 = metadata !{i32 786453, i32 0, metadata !"", i32 0, i32 0, i64 0, i64 0, i64 0, i32 0, null, metadata !1043, i32 0, i32 0} ; [ DW_TAG_subroutine_type ]
!1043 = metadata !{metadata !206, metadata !1019}
!1044 = metadata !{i32 786478, i32 0, metadata !582, metadata !"to_ulong", metadata !"to_ulong", metadata !"_ZNK11ap_int_baseILi12ELb1ELb1EE8to_ulongEv", metadata !142, i32 1724, metadata !1045, i1 false, i1 false, i32 0, i32 0, null, i32 256, i1 false, null, null, i32 0, metadata !121, i32 1724} ; [ DW_TAG_subprogram ]
!1045 = metadata !{i32 786453, i32 0, metadata !"", i32 0, i32 0, i64 0, i64 0, i64 0, i32 0, null, metadata !1046, i32 0, i32 0} ; [ DW_TAG_subroutine_type ]
!1046 = metadata !{metadata !210, metadata !1019}
!1047 = metadata !{i32 786478, i32 0, metadata !582, metadata !"to_int64", metadata !"to_int64", metadata !"_ZNK11ap_int_baseILi12ELb1ELb1EE8to_int64Ev", metadata !142, i32 1725, metadata !1048, i1 false, i1 false, i32 0, i32 0, null, i32 256, i1 false, null, null, i32 0, metadata !121, i32 1725} ; [ DW_TAG_subprogram ]
!1048 = metadata !{i32 786453, i32 0, metadata !"", i32 0, i32 0, i64 0, i64 0, i64 0, i32 0, null, metadata !1049, i32 0, i32 0} ; [ DW_TAG_subroutine_type ]
!1049 = metadata !{metadata !214, metadata !1019}
!1050 = metadata !{i32 786478, i32 0, metadata !582, metadata !"to_uint64", metadata !"to_uint64", metadata !"_ZNK11ap_int_baseILi12ELb1ELb1EE9to_uint64Ev", metadata !142, i32 1726, metadata !1051, i1 false, i1 false, i32 0, i32 0, null, i32 256, i1 false, null, null, i32 0, metadata !121, i32 1726} ; [ DW_TAG_subprogram ]
!1051 = metadata !{i32 786453, i32 0, metadata !"", i32 0, i32 0, i64 0, i64 0, i64 0, i32 0, null, metadata !1052, i32 0, i32 0} ; [ DW_TAG_subroutine_type ]
!1052 = metadata !{metadata !219, metadata !1019}
!1053 = metadata !{i32 786478, i32 0, metadata !582, metadata !"to_double", metadata !"to_double", metadata !"_ZNK11ap_int_baseILi12ELb1ELb1EE9to_doubleEv", metadata !142, i32 1727, metadata !1054, i1 false, i1 false, i32 0, i32 0, null, i32 256, i1 false, null, null, i32 0, metadata !121, i32 1727} ; [ DW_TAG_subprogram ]
!1054 = metadata !{i32 786453, i32 0, metadata !"", i32 0, i32 0, i64 0, i64 0, i64 0, i32 0, null, metadata !1055, i32 0, i32 0} ; [ DW_TAG_subroutine_type ]
!1055 = metadata !{metadata !233, metadata !1019}
!1056 = metadata !{i32 786478, i32 0, metadata !582, metadata !"length", metadata !"length", metadata !"_ZNK11ap_int_baseILi12ELb1ELb1EE6lengthEv", metadata !142, i32 1741, metadata !1036, i1 false, i1 false, i32 0, i32 0, null, i32 256, i1 false, null, null, i32 0, metadata !121, i32 1741} ; [ DW_TAG_subprogram ]
!1057 = metadata !{i32 786478, i32 0, metadata !582, metadata !"length", metadata !"length", metadata !"_ZNVK11ap_int_baseILi12ELb1ELb1EE6lengthEv", metadata !142, i32 1742, metadata !1058, i1 false, i1 false, i32 0, i32 0, null, i32 256, i1 false, null, null, i32 0, metadata !121, i32 1742} ; [ DW_TAG_subprogram ]
!1058 = metadata !{i32 786453, i32 0, metadata !"", i32 0, i32 0, i64 0, i64 0, i64 0, i32 0, null, metadata !1059, i32 0, i32 0} ; [ DW_TAG_subroutine_type ]
!1059 = metadata !{metadata !156, metadata !1060}
!1060 = metadata !{i32 786447, i32 0, metadata !"", i32 0, i32 0, i64 64, i64 64, i64 0, i32 64, metadata !967} ; [ DW_TAG_pointer_type ]
!1061 = metadata !{i32 786478, i32 0, metadata !582, metadata !"reverse", metadata !"reverse", metadata !"_ZN11ap_int_baseILi12ELb1ELb1EE7reverseEv", metadata !142, i32 1747, metadata !1062, i1 false, i1 false, i32 0, i32 0, null, i32 256, i1 false, null, null, i32 0, metadata !121, i32 1747} ; [ DW_TAG_subprogram ]
!1062 = metadata !{i32 786453, i32 0, metadata !"", i32 0, i32 0, i64 0, i64 0, i64 0, i32 0, null, metadata !1063, i32 0, i32 0} ; [ DW_TAG_subroutine_type ]
!1063 = metadata !{metadata !975, metadata !598}
!1064 = metadata !{i32 786478, i32 0, metadata !582, metadata !"iszero", metadata !"iszero", metadata !"_ZNK11ap_int_baseILi12ELb1ELb1EE6iszeroEv", metadata !142, i32 1753, metadata !1021, i1 false, i1 false, i32 0, i32 0, null, i32 256, i1 false, null, null, i32 0, metadata !121, i32 1753} ; [ DW_TAG_subprogram ]
!1065 = metadata !{i32 786478, i32 0, metadata !582, metadata !"is_zero", metadata !"is_zero", metadata !"_ZNK11ap_int_baseILi12ELb1ELb1EE7is_zeroEv", metadata !142, i32 1758, metadata !1021, i1 false, i1 false, i32 0, i32 0, null, i32 256, i1 false, null, null, i32 0, metadata !121, i32 1758} ; [ DW_TAG_subprogram ]
!1066 = metadata !{i32 786478, i32 0, metadata !582, metadata !"sign", metadata !"sign", metadata !"_ZNK11ap_int_baseILi12ELb1ELb1EE4signEv", metadata !142, i32 1763, metadata !1021, i1 false, i1 false, i32 0, i32 0, null, i32 256, i1 false, null, null, i32 0, metadata !121, i32 1763} ; [ DW_TAG_subprogram ]
!1067 = metadata !{i32 786478, i32 0, metadata !582, metadata !"clear", metadata !"clear", metadata !"_ZN11ap_int_baseILi12ELb1ELb1EE5clearEi", metadata !142, i32 1771, metadata !918, i1 false, i1 false, i32 0, i32 0, null, i32 256, i1 false, null, null, i32 0, metadata !121, i32 1771} ; [ DW_TAG_subprogram ]
!1068 = metadata !{i32 786478, i32 0, metadata !582, metadata !"invert", metadata !"invert", metadata !"_ZN11ap_int_baseILi12ELb1ELb1EE6invertEi", metadata !142, i32 1777, metadata !918, i1 false, i1 false, i32 0, i32 0, null, i32 256, i1 false, null, null, i32 0, metadata !121, i32 1777} ; [ DW_TAG_subprogram ]
!1069 = metadata !{i32 786478, i32 0, metadata !582, metadata !"test", metadata !"test", metadata !"_ZNK11ap_int_baseILi12ELb1ELb1EE4testEi", metadata !142, i32 1785, metadata !1070, i1 false, i1 false, i32 0, i32 0, null, i32 256, i1 false, null, null, i32 0, metadata !121, i32 1785} ; [ DW_TAG_subprogram ]
!1070 = metadata !{i32 786453, i32 0, metadata !"", i32 0, i32 0, i64 0, i64 0, i64 0, i32 0, null, metadata !1071, i32 0, i32 0} ; [ DW_TAG_subroutine_type ]
!1071 = metadata !{metadata !158, metadata !1019, metadata !156}
!1072 = metadata !{i32 786478, i32 0, metadata !582, metadata !"set", metadata !"set", metadata !"_ZN11ap_int_baseILi12ELb1ELb1EE3setEi", metadata !142, i32 1791, metadata !918, i1 false, i1 false, i32 0, i32 0, null, i32 256, i1 false, null, null, i32 0, metadata !121, i32 1791} ; [ DW_TAG_subprogram ]
!1073 = metadata !{i32 786478, i32 0, metadata !582, metadata !"set", metadata !"set", metadata !"_ZN11ap_int_baseILi12ELb1ELb1EE3setEib", metadata !142, i32 1797, metadata !1074, i1 false, i1 false, i32 0, i32 0, null, i32 256, i1 false, null, null, i32 0, metadata !121, i32 1797} ; [ DW_TAG_subprogram ]
!1074 = metadata !{i32 786453, i32 0, metadata !"", i32 0, i32 0, i64 0, i64 0, i64 0, i32 0, null, metadata !1075, i32 0, i32 0} ; [ DW_TAG_subroutine_type ]
!1075 = metadata !{null, metadata !598, metadata !156, metadata !158}
!1076 = metadata !{i32 786478, i32 0, metadata !582, metadata !"lrotate", metadata !"lrotate", metadata !"_ZN11ap_int_baseILi12ELb1ELb1EE7lrotateEi", metadata !142, i32 1804, metadata !918, i1 false, i1 false, i32 0, i32 0, null, i32 256, i1 false, null, null, i32 0, metadata !121, i32 1804} ; [ DW_TAG_subprogram ]
!1077 = metadata !{i32 786478, i32 0, metadata !582, metadata !"rrotate", metadata !"rrotate", metadata !"_ZN11ap_int_baseILi12ELb1ELb1EE7rrotateEi", metadata !142, i32 1813, metadata !918, i1 false, i1 false, i32 0, i32 0, null, i32 256, i1 false, null, null, i32 0, metadata !121, i32 1813} ; [ DW_TAG_subprogram ]
!1078 = metadata !{i32 786478, i32 0, metadata !582, metadata !"set_bit", metadata !"set_bit", metadata !"_ZN11ap_int_baseILi12ELb1ELb1EE7set_bitEib", metadata !142, i32 1821, metadata !1074, i1 false, i1 false, i32 0, i32 0, null, i32 256, i1 false, null, null, i32 0, metadata !121, i32 1821} ; [ DW_TAG_subprogram ]
!1079 = metadata !{i32 786478, i32 0, metadata !582, metadata !"get_bit", metadata !"get_bit", metadata !"_ZNK11ap_int_baseILi12ELb1ELb1EE7get_bitEi", metadata !142, i32 1826, metadata !1070, i1 false, i1 false, i32 0, i32 0, null, i32 256, i1 false, null, null, i32 0, metadata !121, i32 1826} ; [ DW_TAG_subprogram ]
!1080 = metadata !{i32 786478, i32 0, metadata !582, metadata !"b_not", metadata !"b_not", metadata !"_ZN11ap_int_baseILi12ELb1ELb1EE5b_notEv", metadata !142, i32 1831, metadata !596, i1 false, i1 false, i32 0, i32 0, null, i32 256, i1 false, null, null, i32 0, metadata !121, i32 1831} ; [ DW_TAG_subprogram ]
!1081 = metadata !{i32 786478, i32 0, metadata !582, metadata !"countLeadingZeros", metadata !"countLeadingZeros", metadata !"_ZN11ap_int_baseILi12ELb1ELb1EE17countLeadingZerosEv", metadata !142, i32 1838, metadata !1082, i1 false, i1 false, i32 0, i32 0, null, i32 256, i1 false, null, null, i32 0, metadata !121, i32 1838} ; [ DW_TAG_subprogram ]
!1082 = metadata !{i32 786453, i32 0, metadata !"", i32 0, i32 0, i64 0, i64 0, i64 0, i32 0, null, metadata !1083, i32 0, i32 0} ; [ DW_TAG_subroutine_type ]
!1083 = metadata !{metadata !156, metadata !598}
!1084 = metadata !{i32 786478, i32 0, metadata !582, metadata !"operator++", metadata !"operator++", metadata !"_ZN11ap_int_baseILi12ELb1ELb1EEppEv", metadata !142, i32 1895, metadata !1062, i1 false, i1 false, i32 0, i32 0, null, i32 256, i1 false, null, null, i32 0, metadata !121, i32 1895} ; [ DW_TAG_subprogram ]
!1085 = metadata !{i32 786478, i32 0, metadata !582, metadata !"operator--", metadata !"operator--", metadata !"_ZN11ap_int_baseILi12ELb1ELb1EEmmEv", metadata !142, i32 1899, metadata !1062, i1 false, i1 false, i32 0, i32 0, null, i32 256, i1 false, null, null, i32 0, metadata !121, i32 1899} ; [ DW_TAG_subprogram ]
!1086 = metadata !{i32 786478, i32 0, metadata !582, metadata !"operator++", metadata !"operator++", metadata !"_ZN11ap_int_baseILi12ELb1ELb1EEppEi", metadata !142, i32 1907, metadata !1087, i1 false, i1 false, i32 0, i32 0, null, i32 256, i1 false, null, null, i32 0, metadata !121, i32 1907} ; [ DW_TAG_subprogram ]
!1087 = metadata !{i32 786453, i32 0, metadata !"", i32 0, i32 0, i64 0, i64 0, i64 0, i32 0, null, metadata !1088, i32 0, i32 0} ; [ DW_TAG_subroutine_type ]
!1088 = metadata !{metadata !959, metadata !598, metadata !156}
!1089 = metadata !{i32 786478, i32 0, metadata !582, metadata !"operator--", metadata !"operator--", metadata !"_ZN11ap_int_baseILi12ELb1ELb1EEmmEi", metadata !142, i32 1912, metadata !1087, i1 false, i1 false, i32 0, i32 0, null, i32 256, i1 false, null, null, i32 0, metadata !121, i32 1912} ; [ DW_TAG_subprogram ]
!1090 = metadata !{i32 786478, i32 0, metadata !582, metadata !"operator+", metadata !"operator+", metadata !"_ZNK11ap_int_baseILi12ELb1ELb1EEpsEv", metadata !142, i32 1921, metadata !1091, i1 false, i1 false, i32 0, i32 0, null, i32 256, i1 false, null, null, i32 0, metadata !121, i32 1921} ; [ DW_TAG_subprogram ]
!1091 = metadata !{i32 786453, i32 0, metadata !"", i32 0, i32 0, i64 0, i64 0, i64 0, i32 0, null, metadata !1092, i32 0, i32 0} ; [ DW_TAG_subroutine_type ]
!1092 = metadata !{metadata !582, metadata !1019}
!1093 = metadata !{i32 786478, i32 0, metadata !582, metadata !"operator!", metadata !"operator!", metadata !"_ZNK11ap_int_baseILi12ELb1ELb1EEntEv", metadata !142, i32 1927, metadata !1021, i1 false, i1 false, i32 0, i32 0, null, i32 256, i1 false, null, null, i32 0, metadata !121, i32 1927} ; [ DW_TAG_subprogram ]
!1094 = metadata !{i32 786478, i32 0, metadata !582, metadata !"operator-", metadata !"operator-", metadata !"_ZNK11ap_int_baseILi12ELb1ELb1EEngEv", metadata !142, i32 1932, metadata !1095, i1 false, i1 false, i32 0, i32 0, null, i32 256, i1 false, null, null, i32 0, metadata !121, i32 1932} ; [ DW_TAG_subprogram ]
!1095 = metadata !{i32 786453, i32 0, metadata !"", i32 0, i32 0, i64 0, i64 0, i64 0, i32 0, null, metadata !1096, i32 0, i32 0} ; [ DW_TAG_subroutine_type ]
!1096 = metadata !{metadata !1097, metadata !1019}
!1097 = metadata !{i32 786434, null, metadata !"ap_int_base<13, true, true>", metadata !142, i32 651, i32 0, i32 0, i32 0, i32 4, null, null, i32 0} ; [ DW_TAG_class_type ]
!1098 = metadata !{i32 786478, i32 0, metadata !582, metadata !"range", metadata !"range", metadata !"_ZN11ap_int_baseILi12ELb1ELb1EE5rangeEii", metadata !142, i32 2062, metadata !1099, i1 false, i1 false, i32 0, i32 0, null, i32 256, i1 false, null, null, i32 0, metadata !121, i32 2062} ; [ DW_TAG_subprogram ]
!1099 = metadata !{i32 786453, i32 0, metadata !"", i32 0, i32 0, i64 0, i64 0, i64 0, i32 0, null, metadata !1100, i32 0, i32 0} ; [ DW_TAG_subroutine_type ]
!1100 = metadata !{metadata !1101, metadata !598, metadata !156, metadata !156}
!1101 = metadata !{i32 786434, null, metadata !"ap_range_ref<12, true>", metadata !142, i32 925, i32 0, i32 0, i32 0, i32 4, null, null, i32 0} ; [ DW_TAG_class_type ]
!1102 = metadata !{i32 786478, i32 0, metadata !582, metadata !"operator()", metadata !"operator()", metadata !"_ZN11ap_int_baseILi12ELb1ELb1EEclEii", metadata !142, i32 2068, metadata !1099, i1 false, i1 false, i32 0, i32 0, null, i32 256, i1 false, null, null, i32 0, metadata !121, i32 2068} ; [ DW_TAG_subprogram ]
!1103 = metadata !{i32 786478, i32 0, metadata !582, metadata !"range", metadata !"range", metadata !"_ZNK11ap_int_baseILi12ELb1ELb1EE5rangeEii", metadata !142, i32 2074, metadata !1104, i1 false, i1 false, i32 0, i32 0, null, i32 256, i1 false, null, null, i32 0, metadata !121, i32 2074} ; [ DW_TAG_subprogram ]
!1104 = metadata !{i32 786453, i32 0, metadata !"", i32 0, i32 0, i64 0, i64 0, i64 0, i32 0, null, metadata !1105, i32 0, i32 0} ; [ DW_TAG_subroutine_type ]
!1105 = metadata !{metadata !1101, metadata !1019, metadata !156, metadata !156}
!1106 = metadata !{i32 786478, i32 0, metadata !582, metadata !"operator()", metadata !"operator()", metadata !"_ZNK11ap_int_baseILi12ELb1ELb1EEclEii", metadata !142, i32 2080, metadata !1104, i1 false, i1 false, i32 0, i32 0, null, i32 256, i1 false, null, null, i32 0, metadata !121, i32 2080} ; [ DW_TAG_subprogram ]
!1107 = metadata !{i32 786478, i32 0, metadata !582, metadata !"operator[]", metadata !"operator[]", metadata !"_ZN11ap_int_baseILi12ELb1ELb1EEixEi", metadata !142, i32 2099, metadata !1108, i1 false, i1 false, i32 0, i32 0, null, i32 256, i1 false, null, null, i32 0, metadata !121, i32 2099} ; [ DW_TAG_subprogram ]
!1108 = metadata !{i32 786453, i32 0, metadata !"", i32 0, i32 0, i64 0, i64 0, i64 0, i32 0, null, metadata !1109, i32 0, i32 0} ; [ DW_TAG_subroutine_type ]
!1109 = metadata !{metadata !1110, metadata !598, metadata !156}
!1110 = metadata !{i32 786434, null, metadata !"ap_bit_ref<12, true>", metadata !142, i32 1249, i32 0, i32 0, i32 0, i32 4, null, null, i32 0} ; [ DW_TAG_class_type ]
!1111 = metadata !{i32 786478, i32 0, metadata !582, metadata !"operator[]", metadata !"operator[]", metadata !"_ZNK11ap_int_baseILi12ELb1ELb1EEixEi", metadata !142, i32 2113, metadata !1070, i1 false, i1 false, i32 0, i32 0, null, i32 256, i1 false, null, null, i32 0, metadata !121, i32 2113} ; [ DW_TAG_subprogram ]
!1112 = metadata !{i32 786478, i32 0, metadata !582, metadata !"bit", metadata !"bit", metadata !"_ZN11ap_int_baseILi12ELb1ELb1EE3bitEi", metadata !142, i32 2127, metadata !1108, i1 false, i1 false, i32 0, i32 0, null, i32 256, i1 false, null, null, i32 0, metadata !121, i32 2127} ; [ DW_TAG_subprogram ]
!1113 = metadata !{i32 786478, i32 0, metadata !582, metadata !"bit", metadata !"bit", metadata !"_ZNK11ap_int_baseILi12ELb1ELb1EE3bitEi", metadata !142, i32 2141, metadata !1070, i1 false, i1 false, i32 0, i32 0, null, i32 256, i1 false, null, null, i32 0, metadata !121, i32 2141} ; [ DW_TAG_subprogram ]
!1114 = metadata !{i32 786478, i32 0, metadata !582, metadata !"and_reduce", metadata !"and_reduce", metadata !"_ZN11ap_int_baseILi12ELb1ELb1EE10and_reduceEv", metadata !142, i32 2321, metadata !1115, i1 false, i1 false, i32 0, i32 0, null, i32 256, i1 false, null, null, i32 0, metadata !121, i32 2321} ; [ DW_TAG_subprogram ]
!1115 = metadata !{i32 786453, i32 0, metadata !"", i32 0, i32 0, i64 0, i64 0, i64 0, i32 0, null, metadata !1116, i32 0, i32 0} ; [ DW_TAG_subroutine_type ]
!1116 = metadata !{metadata !158, metadata !598}
!1117 = metadata !{i32 786478, i32 0, metadata !582, metadata !"nand_reduce", metadata !"nand_reduce", metadata !"_ZN11ap_int_baseILi12ELb1ELb1EE11nand_reduceEv", metadata !142, i32 2324, metadata !1115, i1 false, i1 false, i32 0, i32 0, null, i32 256, i1 false, null, null, i32 0, metadata !121, i32 2324} ; [ DW_TAG_subprogram ]
!1118 = metadata !{i32 786478, i32 0, metadata !582, metadata !"or_reduce", metadata !"or_reduce", metadata !"_ZN11ap_int_baseILi12ELb1ELb1EE9or_reduceEv", metadata !142, i32 2327, metadata !1115, i1 false, i1 false, i32 0, i32 0, null, i32 256, i1 false, null, null, i32 0, metadata !121, i32 2327} ; [ DW_TAG_subprogram ]
!1119 = metadata !{i32 786478, i32 0, metadata !582, metadata !"nor_reduce", metadata !"nor_reduce", metadata !"_ZN11ap_int_baseILi12ELb1ELb1EE10nor_reduceEv", metadata !142, i32 2330, metadata !1115, i1 false, i1 false, i32 0, i32 0, null, i32 256, i1 false, null, null, i32 0, metadata !121, i32 2330} ; [ DW_TAG_subprogram ]
!1120 = metadata !{i32 786478, i32 0, metadata !582, metadata !"xor_reduce", metadata !"xor_reduce", metadata !"_ZN11ap_int_baseILi12ELb1ELb1EE10xor_reduceEv", metadata !142, i32 2333, metadata !1115, i1 false, i1 false, i32 0, i32 0, null, i32 256, i1 false, null, null, i32 0, metadata !121, i32 2333} ; [ DW_TAG_subprogram ]
!1121 = metadata !{i32 786478, i32 0, metadata !582, metadata !"xnor_reduce", metadata !"xnor_reduce", metadata !"_ZN11ap_int_baseILi12ELb1ELb1EE11xnor_reduceEv", metadata !142, i32 2336, metadata !1115, i1 false, i1 false, i32 0, i32 0, null, i32 256, i1 false, null, null, i32 0, metadata !121, i32 2336} ; [ DW_TAG_subprogram ]
!1122 = metadata !{i32 786478, i32 0, metadata !582, metadata !"and_reduce", metadata !"and_reduce", metadata !"_ZNK11ap_int_baseILi12ELb1ELb1EE10and_reduceEv", metadata !142, i32 2340, metadata !1021, i1 false, i1 false, i32 0, i32 0, null, i32 256, i1 false, null, null, i32 0, metadata !121, i32 2340} ; [ DW_TAG_subprogram ]
!1123 = metadata !{i32 786478, i32 0, metadata !582, metadata !"nand_reduce", metadata !"nand_reduce", metadata !"_ZNK11ap_int_baseILi12ELb1ELb1EE11nand_reduceEv", metadata !142, i32 2343, metadata !1021, i1 false, i1 false, i32 0, i32 0, null, i32 256, i1 false, null, null, i32 0, metadata !121, i32 2343} ; [ DW_TAG_subprogram ]
!1124 = metadata !{i32 786478, i32 0, metadata !582, metadata !"or_reduce", metadata !"or_reduce", metadata !"_ZNK11ap_int_baseILi12ELb1ELb1EE9or_reduceEv", metadata !142, i32 2346, metadata !1021, i1 false, i1 false, i32 0, i32 0, null, i32 256, i1 false, null, null, i32 0, metadata !121, i32 2346} ; [ DW_TAG_subprogram ]
!1125 = metadata !{i32 786478, i32 0, metadata !582, metadata !"nor_reduce", metadata !"nor_reduce", metadata !"_ZNK11ap_int_baseILi12ELb1ELb1EE10nor_reduceEv", metadata !142, i32 2349, metadata !1021, i1 false, i1 false, i32 0, i32 0, null, i32 256, i1 false, null, null, i32 0, metadata !121, i32 2349} ; [ DW_TAG_subprogram ]
!1126 = metadata !{i32 786478, i32 0, metadata !582, metadata !"xor_reduce", metadata !"xor_reduce", metadata !"_ZNK11ap_int_baseILi12ELb1ELb1EE10xor_reduceEv", metadata !142, i32 2352, metadata !1021, i1 false, i1 false, i32 0, i32 0, null, i32 256, i1 false, null, null, i32 0, metadata !121, i32 2352} ; [ DW_TAG_subprogram ]
!1127 = metadata !{i32 786478, i32 0, metadata !582, metadata !"xnor_reduce", metadata !"xnor_reduce", metadata !"_ZNK11ap_int_baseILi12ELb1ELb1EE11xnor_reduceEv", metadata !142, i32 2355, metadata !1021, i1 false, i1 false, i32 0, i32 0, null, i32 256, i1 false, null, null, i32 0, metadata !121, i32 2355} ; [ DW_TAG_subprogram ]
!1128 = metadata !{i32 786478, i32 0, metadata !582, metadata !"to_string", metadata !"to_string", metadata !"_ZNK11ap_int_baseILi12ELb1ELb1EE9to_stringEPci8BaseModeb", metadata !142, i32 2362, metadata !1129, i1 false, i1 false, i32 0, i32 0, null, i32 256, i1 false, null, null, i32 0, metadata !121, i32 2362} ; [ DW_TAG_subprogram ]
!1129 = metadata !{i32 786453, i32 0, metadata !"", i32 0, i32 0, i64 0, i64 0, i64 0, i32 0, null, metadata !1130, i32 0, i32 0} ; [ DW_TAG_subroutine_type ]
!1130 = metadata !{null, metadata !1019, metadata !884, metadata !156, metadata !885, metadata !158}
!1131 = metadata !{i32 786478, i32 0, metadata !582, metadata !"to_string", metadata !"to_string", metadata !"_ZNK11ap_int_baseILi12ELb1ELb1EE9to_stringE8BaseModeb", metadata !142, i32 2389, metadata !1132, i1 false, i1 false, i32 0, i32 0, null, i32 256, i1 false, null, null, i32 0, metadata !121, i32 2389} ; [ DW_TAG_subprogram ]
!1132 = metadata !{i32 786453, i32 0, metadata !"", i32 0, i32 0, i64 0, i64 0, i64 0, i32 0, null, metadata !1133, i32 0, i32 0} ; [ DW_TAG_subroutine_type ]
!1133 = metadata !{metadata !884, metadata !1019, metadata !885, metadata !158}
!1134 = metadata !{i32 786478, i32 0, metadata !582, metadata !"to_string", metadata !"to_string", metadata !"_ZNK11ap_int_baseILi12ELb1ELb1EE9to_stringEab", metadata !142, i32 2393, metadata !1135, i1 false, i1 false, i32 0, i32 0, null, i32 256, i1 false, null, null, i32 0, metadata !121, i32 2393} ; [ DW_TAG_subprogram ]
!1135 = metadata !{i32 786453, i32 0, metadata !"", i32 0, i32 0, i64 0, i64 0, i64 0, i32 0, null, metadata !1136, i32 0, i32 0} ; [ DW_TAG_subroutine_type ]
!1136 = metadata !{metadata !884, metadata !1019, metadata !183, metadata !158}
!1137 = metadata !{metadata !1138, metadata !391, metadata !898}
!1138 = metadata !{i32 786480, null, metadata !"_AP_W", metadata !156, i64 12, null, i32 0, i32 0} ; [ DW_TAG_template_value_parameter ]
!1139 = metadata !{i32 786478, i32 0, metadata !378, metadata !"range", metadata !"range", metadata !"_ZN11ap_int_baseILi11ELb1ELb1EE5rangeEii", metadata !142, i32 2062, metadata !1140, i1 false, i1 false, i32 0, i32 0, null, i32 256, i1 false, null, null, i32 0, metadata !121, i32 2062} ; [ DW_TAG_subprogram ]
!1140 = metadata !{i32 786453, i32 0, metadata !"", i32 0, i32 0, i64 0, i64 0, i64 0, i32 0, null, metadata !1141, i32 0, i32 0} ; [ DW_TAG_subroutine_type ]
!1141 = metadata !{metadata !1142, metadata !395, metadata !156, metadata !156}
!1142 = metadata !{i32 786434, null, metadata !"ap_range_ref<11, true>", metadata !142, i32 925, i32 0, i32 0, i32 0, i32 4, null, null, i32 0} ; [ DW_TAG_class_type ]
!1143 = metadata !{i32 786478, i32 0, metadata !378, metadata !"operator()", metadata !"operator()", metadata !"_ZN11ap_int_baseILi11ELb1ELb1EEclEii", metadata !142, i32 2068, metadata !1140, i1 false, i1 false, i32 0, i32 0, null, i32 256, i1 false, null, null, i32 0, metadata !121, i32 2068} ; [ DW_TAG_subprogram ]
!1144 = metadata !{i32 786478, i32 0, metadata !378, metadata !"range", metadata !"range", metadata !"_ZNK11ap_int_baseILi11ELb1ELb1EE5rangeEii", metadata !142, i32 2074, metadata !1145, i1 false, i1 false, i32 0, i32 0, null, i32 256, i1 false, null, null, i32 0, metadata !121, i32 2074} ; [ DW_TAG_subprogram ]
!1145 = metadata !{i32 786453, i32 0, metadata !"", i32 0, i32 0, i64 0, i64 0, i64 0, i32 0, null, metadata !1146, i32 0, i32 0} ; [ DW_TAG_subroutine_type ]
!1146 = metadata !{metadata !1142, metadata !504, metadata !156, metadata !156}
!1147 = metadata !{i32 786478, i32 0, metadata !378, metadata !"operator()", metadata !"operator()", metadata !"_ZNK11ap_int_baseILi11ELb1ELb1EEclEii", metadata !142, i32 2080, metadata !1145, i1 false, i1 false, i32 0, i32 0, null, i32 256, i1 false, null, null, i32 0, metadata !121, i32 2080} ; [ DW_TAG_subprogram ]
!1148 = metadata !{i32 786478, i32 0, metadata !378, metadata !"operator[]", metadata !"operator[]", metadata !"_ZN11ap_int_baseILi11ELb1ELb1EEixEi", metadata !142, i32 2099, metadata !1149, i1 false, i1 false, i32 0, i32 0, null, i32 256, i1 false, null, null, i32 0, metadata !121, i32 2099} ; [ DW_TAG_subprogram ]
!1149 = metadata !{i32 786453, i32 0, metadata !"", i32 0, i32 0, i64 0, i64 0, i64 0, i32 0, null, metadata !1150, i32 0, i32 0} ; [ DW_TAG_subroutine_type ]
!1150 = metadata !{metadata !1151, metadata !395, metadata !156}
!1151 = metadata !{i32 786434, null, metadata !"ap_bit_ref<11, true>", metadata !142, i32 1249, i32 0, i32 0, i32 0, i32 4, null, null, i32 0} ; [ DW_TAG_class_type ]
!1152 = metadata !{i32 786478, i32 0, metadata !378, metadata !"operator[]", metadata !"operator[]", metadata !"_ZNK11ap_int_baseILi11ELb1ELb1EEixEi", metadata !142, i32 2113, metadata !555, i1 false, i1 false, i32 0, i32 0, null, i32 256, i1 false, null, null, i32 0, metadata !121, i32 2113} ; [ DW_TAG_subprogram ]
!1153 = metadata !{i32 786478, i32 0, metadata !378, metadata !"bit", metadata !"bit", metadata !"_ZN11ap_int_baseILi11ELb1ELb1EE3bitEi", metadata !142, i32 2127, metadata !1149, i1 false, i1 false, i32 0, i32 0, null, i32 256, i1 false, null, null, i32 0, metadata !121, i32 2127} ; [ DW_TAG_subprogram ]
!1154 = metadata !{i32 786478, i32 0, metadata !378, metadata !"bit", metadata !"bit", metadata !"_ZNK11ap_int_baseILi11ELb1ELb1EE3bitEi", metadata !142, i32 2141, metadata !555, i1 false, i1 false, i32 0, i32 0, null, i32 256, i1 false, null, null, i32 0, metadata !121, i32 2141} ; [ DW_TAG_subprogram ]
!1155 = metadata !{i32 786478, i32 0, metadata !378, metadata !"and_reduce", metadata !"and_reduce", metadata !"_ZN11ap_int_baseILi11ELb1ELb1EE10and_reduceEv", metadata !142, i32 2321, metadata !1156, i1 false, i1 false, i32 0, i32 0, null, i32 256, i1 false, null, null, i32 0, metadata !121, i32 2321} ; [ DW_TAG_subprogram ]
!1156 = metadata !{i32 786453, i32 0, metadata !"", i32 0, i32 0, i64 0, i64 0, i64 0, i32 0, null, metadata !1157, i32 0, i32 0} ; [ DW_TAG_subroutine_type ]
!1157 = metadata !{metadata !158, metadata !395}
!1158 = metadata !{i32 786478, i32 0, metadata !378, metadata !"nand_reduce", metadata !"nand_reduce", metadata !"_ZN11ap_int_baseILi11ELb1ELb1EE11nand_reduceEv", metadata !142, i32 2324, metadata !1156, i1 false, i1 false, i32 0, i32 0, null, i32 256, i1 false, null, null, i32 0, metadata !121, i32 2324} ; [ DW_TAG_subprogram ]
!1159 = metadata !{i32 786478, i32 0, metadata !378, metadata !"or_reduce", metadata !"or_reduce", metadata !"_ZN11ap_int_baseILi11ELb1ELb1EE9or_reduceEv", metadata !142, i32 2327, metadata !1156, i1 false, i1 false, i32 0, i32 0, null, i32 256, i1 false, null, null, i32 0, metadata !121, i32 2327} ; [ DW_TAG_subprogram ]
!1160 = metadata !{i32 786478, i32 0, metadata !378, metadata !"nor_reduce", metadata !"nor_reduce", metadata !"_ZN11ap_int_baseILi11ELb1ELb1EE10nor_reduceEv", metadata !142, i32 2330, metadata !1156, i1 false, i1 false, i32 0, i32 0, null, i32 256, i1 false, null, null, i32 0, metadata !121, i32 2330} ; [ DW_TAG_subprogram ]
!1161 = metadata !{i32 786478, i32 0, metadata !378, metadata !"xor_reduce", metadata !"xor_reduce", metadata !"_ZN11ap_int_baseILi11ELb1ELb1EE10xor_reduceEv", metadata !142, i32 2333, metadata !1156, i1 false, i1 false, i32 0, i32 0, null, i32 256, i1 false, null, null, i32 0, metadata !121, i32 2333} ; [ DW_TAG_subprogram ]
!1162 = metadata !{i32 786478, i32 0, metadata !378, metadata !"xnor_reduce", metadata !"xnor_reduce", metadata !"_ZN11ap_int_baseILi11ELb1ELb1EE11xnor_reduceEv", metadata !142, i32 2336, metadata !1156, i1 false, i1 false, i32 0, i32 0, null, i32 256, i1 false, null, null, i32 0, metadata !121, i32 2336} ; [ DW_TAG_subprogram ]
!1163 = metadata !{i32 786478, i32 0, metadata !378, metadata !"and_reduce", metadata !"and_reduce", metadata !"_ZNK11ap_int_baseILi11ELb1ELb1EE10and_reduceEv", metadata !142, i32 2340, metadata !506, i1 false, i1 false, i32 0, i32 0, null, i32 256, i1 false, null, null, i32 0, metadata !121, i32 2340} ; [ DW_TAG_subprogram ]
!1164 = metadata !{i32 786478, i32 0, metadata !378, metadata !"nand_reduce", metadata !"nand_reduce", metadata !"_ZNK11ap_int_baseILi11ELb1ELb1EE11nand_reduceEv", metadata !142, i32 2343, metadata !506, i1 false, i1 false, i32 0, i32 0, null, i32 256, i1 false, null, null, i32 0, metadata !121, i32 2343} ; [ DW_TAG_subprogram ]
!1165 = metadata !{i32 786478, i32 0, metadata !378, metadata !"or_reduce", metadata !"or_reduce", metadata !"_ZNK11ap_int_baseILi11ELb1ELb1EE9or_reduceEv", metadata !142, i32 2346, metadata !506, i1 false, i1 false, i32 0, i32 0, null, i32 256, i1 false, null, null, i32 0, metadata !121, i32 2346} ; [ DW_TAG_subprogram ]
!1166 = metadata !{i32 786478, i32 0, metadata !378, metadata !"nor_reduce", metadata !"nor_reduce", metadata !"_ZNK11ap_int_baseILi11ELb1ELb1EE10nor_reduceEv", metadata !142, i32 2349, metadata !506, i1 false, i1 false, i32 0, i32 0, null, i32 256, i1 false, null, null, i32 0, metadata !121, i32 2349} ; [ DW_TAG_subprogram ]
!1167 = metadata !{i32 786478, i32 0, metadata !378, metadata !"xor_reduce", metadata !"xor_reduce", metadata !"_ZNK11ap_int_baseILi11ELb1ELb1EE10xor_reduceEv", metadata !142, i32 2352, metadata !506, i1 false, i1 false, i32 0, i32 0, null, i32 256, i1 false, null, null, i32 0, metadata !121, i32 2352} ; [ DW_TAG_subprogram ]
!1168 = metadata !{i32 786478, i32 0, metadata !378, metadata !"xnor_reduce", metadata !"xnor_reduce", metadata !"_ZNK11ap_int_baseILi11ELb1ELb1EE11xnor_reduceEv", metadata !142, i32 2355, metadata !506, i1 false, i1 false, i32 0, i32 0, null, i32 256, i1 false, null, null, i32 0, metadata !121, i32 2355} ; [ DW_TAG_subprogram ]
!1169 = metadata !{i32 786478, i32 0, metadata !378, metadata !"to_string", metadata !"to_string", metadata !"_ZNK11ap_int_baseILi11ELb1ELb1EE9to_stringEPci8BaseModeb", metadata !142, i32 2362, metadata !1170, i1 false, i1 false, i32 0, i32 0, null, i32 256, i1 false, null, null, i32 0, metadata !121, i32 2362} ; [ DW_TAG_subprogram ]
!1170 = metadata !{i32 786453, i32 0, metadata !"", i32 0, i32 0, i64 0, i64 0, i64 0, i32 0, null, metadata !1171, i32 0, i32 0} ; [ DW_TAG_subroutine_type ]
!1171 = metadata !{null, metadata !504, metadata !884, metadata !156, metadata !885, metadata !158}
!1172 = metadata !{i32 786478, i32 0, metadata !378, metadata !"to_string", metadata !"to_string", metadata !"_ZNK11ap_int_baseILi11ELb1ELb1EE9to_stringE8BaseModeb", metadata !142, i32 2389, metadata !1173, i1 false, i1 false, i32 0, i32 0, null, i32 256, i1 false, null, null, i32 0, metadata !121, i32 2389} ; [ DW_TAG_subprogram ]
!1173 = metadata !{i32 786453, i32 0, metadata !"", i32 0, i32 0, i64 0, i64 0, i64 0, i32 0, null, metadata !1174, i32 0, i32 0} ; [ DW_TAG_subroutine_type ]
!1174 = metadata !{metadata !884, metadata !504, metadata !885, metadata !158}
!1175 = metadata !{i32 786478, i32 0, metadata !378, metadata !"to_string", metadata !"to_string", metadata !"_ZNK11ap_int_baseILi11ELb1ELb1EE9to_stringEab", metadata !142, i32 2393, metadata !1176, i1 false, i1 false, i32 0, i32 0, null, i32 256, i1 false, null, null, i32 0, metadata !121, i32 2393} ; [ DW_TAG_subprogram ]
!1176 = metadata !{i32 786453, i32 0, metadata !"", i32 0, i32 0, i64 0, i64 0, i64 0, i32 0, null, metadata !1177, i32 0, i32 0} ; [ DW_TAG_subroutine_type ]
!1177 = metadata !{metadata !884, metadata !504, metadata !183, metadata !158}
!1178 = metadata !{metadata !1179, metadata !391, metadata !898}
!1179 = metadata !{i32 786480, null, metadata !"_AP_W", metadata !156, i64 11, null, i32 0, i32 0} ; [ DW_TAG_template_value_parameter ]
!1180 = metadata !{i32 786478, i32 0, metadata !141, metadata !"range", metadata !"range", metadata !"_ZN11ap_int_baseILi10ELb0ELb1EE5rangeEii", metadata !142, i32 2062, metadata !1181, i1 false, i1 false, i32 0, i32 0, null, i32 256, i1 false, null, null, i32 0, metadata !121, i32 2062} ; [ DW_TAG_subprogram ]
!1181 = metadata !{i32 786453, i32 0, metadata !"", i32 0, i32 0, i64 0, i64 0, i64 0, i32 0, null, metadata !1182, i32 0, i32 0} ; [ DW_TAG_subroutine_type ]
!1182 = metadata !{metadata !1183, metadata !162, metadata !156, metadata !156}
!1183 = metadata !{i32 786434, null, metadata !"ap_range_ref<10, false>", metadata !142, i32 925, i32 0, i32 0, i32 0, i32 4, null, null, i32 0} ; [ DW_TAG_class_type ]
!1184 = metadata !{i32 786478, i32 0, metadata !141, metadata !"operator()", metadata !"operator()", metadata !"_ZN11ap_int_baseILi10ELb0ELb1EEclEii", metadata !142, i32 2068, metadata !1181, i1 false, i1 false, i32 0, i32 0, null, i32 256, i1 false, null, null, i32 0, metadata !121, i32 2068} ; [ DW_TAG_subprogram ]
!1185 = metadata !{i32 786478, i32 0, metadata !141, metadata !"range", metadata !"range", metadata !"_ZNK11ap_int_baseILi10ELb0ELb1EE5rangeEii", metadata !142, i32 2074, metadata !1186, i1 false, i1 false, i32 0, i32 0, null, i32 256, i1 false, null, null, i32 0, metadata !121, i32 2074} ; [ DW_TAG_subprogram ]
!1186 = metadata !{i32 786453, i32 0, metadata !"", i32 0, i32 0, i64 0, i64 0, i64 0, i32 0, null, metadata !1187, i32 0, i32 0} ; [ DW_TAG_subroutine_type ]
!1187 = metadata !{metadata !1183, metadata !300, metadata !156, metadata !156}
!1188 = metadata !{i32 786478, i32 0, metadata !141, metadata !"operator()", metadata !"operator()", metadata !"_ZNK11ap_int_baseILi10ELb0ELb1EEclEii", metadata !142, i32 2080, metadata !1186, i1 false, i1 false, i32 0, i32 0, null, i32 256, i1 false, null, null, i32 0, metadata !121, i32 2080} ; [ DW_TAG_subprogram ]
!1189 = metadata !{i32 786478, i32 0, metadata !141, metadata !"operator[]", metadata !"operator[]", metadata !"_ZN11ap_int_baseILi10ELb0ELb1EEixEi", metadata !142, i32 2099, metadata !1190, i1 false, i1 false, i32 0, i32 0, null, i32 256, i1 false, null, null, i32 0, metadata !121, i32 2099} ; [ DW_TAG_subprogram ]
!1190 = metadata !{i32 786453, i32 0, metadata !"", i32 0, i32 0, i64 0, i64 0, i64 0, i32 0, null, metadata !1191, i32 0, i32 0} ; [ DW_TAG_subroutine_type ]
!1191 = metadata !{metadata !1192, metadata !162, metadata !156}
!1192 = metadata !{i32 786434, null, metadata !"ap_bit_ref<10, false>", metadata !142, i32 1249, i32 0, i32 0, i32 0, i32 4, null, null, i32 0} ; [ DW_TAG_class_type ]
!1193 = metadata !{i32 786478, i32 0, metadata !141, metadata !"operator[]", metadata !"operator[]", metadata !"_ZNK11ap_int_baseILi10ELb0ELb1EEixEi", metadata !142, i32 2113, metadata !351, i1 false, i1 false, i32 0, i32 0, null, i32 256, i1 false, null, null, i32 0, metadata !121, i32 2113} ; [ DW_TAG_subprogram ]
!1194 = metadata !{i32 786478, i32 0, metadata !141, metadata !"bit", metadata !"bit", metadata !"_ZN11ap_int_baseILi10ELb0ELb1EE3bitEi", metadata !142, i32 2127, metadata !1190, i1 false, i1 false, i32 0, i32 0, null, i32 256, i1 false, null, null, i32 0, metadata !121, i32 2127} ; [ DW_TAG_subprogram ]
!1195 = metadata !{i32 786478, i32 0, metadata !141, metadata !"bit", metadata !"bit", metadata !"_ZNK11ap_int_baseILi10ELb0ELb1EE3bitEi", metadata !142, i32 2141, metadata !351, i1 false, i1 false, i32 0, i32 0, null, i32 256, i1 false, null, null, i32 0, metadata !121, i32 2141} ; [ DW_TAG_subprogram ]
!1196 = metadata !{i32 786478, i32 0, metadata !141, metadata !"and_reduce", metadata !"and_reduce", metadata !"_ZN11ap_int_baseILi10ELb0ELb1EE10and_reduceEv", metadata !142, i32 2321, metadata !1197, i1 false, i1 false, i32 0, i32 0, null, i32 256, i1 false, null, null, i32 0, metadata !121, i32 2321} ; [ DW_TAG_subprogram ]
!1197 = metadata !{i32 786453, i32 0, metadata !"", i32 0, i32 0, i64 0, i64 0, i64 0, i32 0, null, metadata !1198, i32 0, i32 0} ; [ DW_TAG_subroutine_type ]
!1198 = metadata !{metadata !158, metadata !162}
!1199 = metadata !{i32 786478, i32 0, metadata !141, metadata !"nand_reduce", metadata !"nand_reduce", metadata !"_ZN11ap_int_baseILi10ELb0ELb1EE11nand_reduceEv", metadata !142, i32 2324, metadata !1197, i1 false, i1 false, i32 0, i32 0, null, i32 256, i1 false, null, null, i32 0, metadata !121, i32 2324} ; [ DW_TAG_subprogram ]
!1200 = metadata !{i32 786478, i32 0, metadata !141, metadata !"or_reduce", metadata !"or_reduce", metadata !"_ZN11ap_int_baseILi10ELb0ELb1EE9or_reduceEv", metadata !142, i32 2327, metadata !1197, i1 false, i1 false, i32 0, i32 0, null, i32 256, i1 false, null, null, i32 0, metadata !121, i32 2327} ; [ DW_TAG_subprogram ]
!1201 = metadata !{i32 786478, i32 0, metadata !141, metadata !"nor_reduce", metadata !"nor_reduce", metadata !"_ZN11ap_int_baseILi10ELb0ELb1EE10nor_reduceEv", metadata !142, i32 2330, metadata !1197, i1 false, i1 false, i32 0, i32 0, null, i32 256, i1 false, null, null, i32 0, metadata !121, i32 2330} ; [ DW_TAG_subprogram ]
!1202 = metadata !{i32 786478, i32 0, metadata !141, metadata !"xor_reduce", metadata !"xor_reduce", metadata !"_ZN11ap_int_baseILi10ELb0ELb1EE10xor_reduceEv", metadata !142, i32 2333, metadata !1197, i1 false, i1 false, i32 0, i32 0, null, i32 256, i1 false, null, null, i32 0, metadata !121, i32 2333} ; [ DW_TAG_subprogram ]
!1203 = metadata !{i32 786478, i32 0, metadata !141, metadata !"xnor_reduce", metadata !"xnor_reduce", metadata !"_ZN11ap_int_baseILi10ELb0ELb1EE11xnor_reduceEv", metadata !142, i32 2336, metadata !1197, i1 false, i1 false, i32 0, i32 0, null, i32 256, i1 false, null, null, i32 0, metadata !121, i32 2336} ; [ DW_TAG_subprogram ]
!1204 = metadata !{i32 786478, i32 0, metadata !141, metadata !"and_reduce", metadata !"and_reduce", metadata !"_ZNK11ap_int_baseILi10ELb0ELb1EE10and_reduceEv", metadata !142, i32 2340, metadata !302, i1 false, i1 false, i32 0, i32 0, null, i32 256, i1 false, null, null, i32 0, metadata !121, i32 2340} ; [ DW_TAG_subprogram ]
!1205 = metadata !{i32 786478, i32 0, metadata !141, metadata !"nand_reduce", metadata !"nand_reduce", metadata !"_ZNK11ap_int_baseILi10ELb0ELb1EE11nand_reduceEv", metadata !142, i32 2343, metadata !302, i1 false, i1 false, i32 0, i32 0, null, i32 256, i1 false, null, null, i32 0, metadata !121, i32 2343} ; [ DW_TAG_subprogram ]
!1206 = metadata !{i32 786478, i32 0, metadata !141, metadata !"or_reduce", metadata !"or_reduce", metadata !"_ZNK11ap_int_baseILi10ELb0ELb1EE9or_reduceEv", metadata !142, i32 2346, metadata !302, i1 false, i1 false, i32 0, i32 0, null, i32 256, i1 false, null, null, i32 0, metadata !121, i32 2346} ; [ DW_TAG_subprogram ]
!1207 = metadata !{i32 786478, i32 0, metadata !141, metadata !"nor_reduce", metadata !"nor_reduce", metadata !"_ZNK11ap_int_baseILi10ELb0ELb1EE10nor_reduceEv", metadata !142, i32 2349, metadata !302, i1 false, i1 false, i32 0, i32 0, null, i32 256, i1 false, null, null, i32 0, metadata !121, i32 2349} ; [ DW_TAG_subprogram ]
!1208 = metadata !{i32 786478, i32 0, metadata !141, metadata !"xor_reduce", metadata !"xor_reduce", metadata !"_ZNK11ap_int_baseILi10ELb0ELb1EE10xor_reduceEv", metadata !142, i32 2352, metadata !302, i1 false, i1 false, i32 0, i32 0, null, i32 256, i1 false, null, null, i32 0, metadata !121, i32 2352} ; [ DW_TAG_subprogram ]
!1209 = metadata !{i32 786478, i32 0, metadata !141, metadata !"xnor_reduce", metadata !"xnor_reduce", metadata !"_ZNK11ap_int_baseILi10ELb0ELb1EE11xnor_reduceEv", metadata !142, i32 2355, metadata !302, i1 false, i1 false, i32 0, i32 0, null, i32 256, i1 false, null, null, i32 0, metadata !121, i32 2355} ; [ DW_TAG_subprogram ]
!1210 = metadata !{i32 786478, i32 0, metadata !141, metadata !"to_string", metadata !"to_string", metadata !"_ZNK11ap_int_baseILi10ELb0ELb1EE9to_stringEPci8BaseModeb", metadata !142, i32 2362, metadata !1211, i1 false, i1 false, i32 0, i32 0, null, i32 256, i1 false, null, null, i32 0, metadata !121, i32 2362} ; [ DW_TAG_subprogram ]
!1211 = metadata !{i32 786453, i32 0, metadata !"", i32 0, i32 0, i64 0, i64 0, i64 0, i32 0, null, metadata !1212, i32 0, i32 0} ; [ DW_TAG_subroutine_type ]
!1212 = metadata !{null, metadata !300, metadata !884, metadata !156, metadata !885, metadata !158}
!1213 = metadata !{i32 786478, i32 0, metadata !141, metadata !"to_string", metadata !"to_string", metadata !"_ZNK11ap_int_baseILi10ELb0ELb1EE9to_stringE8BaseModeb", metadata !142, i32 2389, metadata !1214, i1 false, i1 false, i32 0, i32 0, null, i32 256, i1 false, null, null, i32 0, metadata !121, i32 2389} ; [ DW_TAG_subprogram ]
!1214 = metadata !{i32 786453, i32 0, metadata !"", i32 0, i32 0, i64 0, i64 0, i64 0, i32 0, null, metadata !1215, i32 0, i32 0} ; [ DW_TAG_subroutine_type ]
!1215 = metadata !{metadata !884, metadata !300, metadata !885, metadata !158}
!1216 = metadata !{i32 786478, i32 0, metadata !141, metadata !"to_string", metadata !"to_string", metadata !"_ZNK11ap_int_baseILi10ELb0ELb1EE9to_stringEab", metadata !142, i32 2393, metadata !1217, i1 false, i1 false, i32 0, i32 0, null, i32 256, i1 false, null, null, i32 0, metadata !121, i32 2393} ; [ DW_TAG_subprogram ]
!1217 = metadata !{i32 786453, i32 0, metadata !"", i32 0, i32 0, i64 0, i64 0, i64 0, i32 0, null, metadata !1218, i32 0, i32 0} ; [ DW_TAG_subroutine_type ]
!1218 = metadata !{metadata !884, metadata !300, metadata !183, metadata !158}
!1219 = metadata !{metadata !1220, metadata !157, metadata !898}
!1220 = metadata !{i32 786480, null, metadata !"_AP_W", metadata !156, i64 10, null, i32 0, i32 0} ; [ DW_TAG_template_value_parameter ]
!1221 = metadata !{i32 786478, i32 0, metadata !135, metadata !"sc_uint", metadata !"sc_uint", metadata !"", metadata !138, i32 272, metadata !1222, i1 false, i1 false, i32 0, i32 0, null, i32 256, i1 false, null, null, i32 0, metadata !121, i32 272} ; [ DW_TAG_subprogram ]
!1222 = metadata !{i32 786453, i32 0, metadata !"", i32 0, i32 0, i64 0, i64 0, i64 0, i32 0, null, metadata !1223, i32 0, i32 0} ; [ DW_TAG_subroutine_type ]
!1223 = metadata !{null, metadata !1224}
!1224 = metadata !{i32 786447, i32 0, metadata !"", i32 0, i32 0, i64 64, i64 64, i64 0, i32 64, metadata !135} ; [ DW_TAG_pointer_type ]
!1225 = metadata !{i32 786478, i32 0, metadata !135, metadata !"sc_uint", metadata !"sc_uint", metadata !"", metadata !138, i32 278, metadata !1226, i1 false, i1 false, i32 0, i32 0, null, i32 256, i1 false, null, null, i32 0, metadata !121, i32 278} ; [ DW_TAG_subprogram ]
!1226 = metadata !{i32 786453, i32 0, metadata !"", i32 0, i32 0, i64 0, i64 0, i64 0, i32 0, null, metadata !1227, i32 0, i32 0} ; [ DW_TAG_subroutine_type ]
!1227 = metadata !{null, metadata !1224, metadata !1228}
!1228 = metadata !{i32 786448, null, null, null, i32 0, i64 0, i64 0, i64 0, i32 0, metadata !1229} ; [ DW_TAG_reference_type ]
!1229 = metadata !{i32 786470, null, metadata !"", null, i32 0, i64 0, i64 0, i64 0, i32 0, metadata !1230} ; [ DW_TAG_const_type ]
!1230 = metadata !{i32 786454, metadata !135, metadata !"sc_uint_base", metadata !138, i32 270, i64 0, i64 0, i64 0, i32 0, metadata !141} ; [ DW_TAG_typedef ]
!1231 = metadata !{i32 786478, i32 0, metadata !135, metadata !"sc_uint", metadata !"sc_uint", metadata !"", metadata !138, i32 279, metadata !1232, i1 false, i1 false, i32 0, i32 0, null, i32 256, i1 false, null, null, i32 0, metadata !121, i32 279} ; [ DW_TAG_subprogram ]
!1232 = metadata !{i32 786453, i32 0, metadata !"", i32 0, i32 0, i64 0, i64 0, i64 0, i32 0, null, metadata !1233, i32 0, i32 0} ; [ DW_TAG_subroutine_type ]
!1233 = metadata !{null, metadata !1224, metadata !1234}
!1234 = metadata !{i32 786448, null, null, null, i32 0, i64 0, i64 0, i64 0, i32 0, metadata !1235} ; [ DW_TAG_reference_type ]
!1235 = metadata !{i32 786485, null, metadata !"", null, i32 0, i64 0, i64 0, i64 0, i32 0, metadata !1230} ; [ DW_TAG_volatile_type ]
!1236 = metadata !{i32 786478, i32 0, metadata !135, metadata !"sc_uint<10, false>", metadata !"sc_uint<10, false>", metadata !"", metadata !138, i32 284, metadata !1237, i1 false, i1 false, i32 0, i32 0, null, i32 256, i1 false, null, metadata !1239, i32 0, metadata !121, i32 284} ; [ DW_TAG_subprogram ]
!1237 = metadata !{i32 786453, i32 0, metadata !"", i32 0, i32 0, i64 0, i64 0, i64 0, i32 0, null, metadata !1238, i32 0, i32 0} ; [ DW_TAG_subroutine_type ]
!1238 = metadata !{null, metadata !1224, metadata !166}
!1239 = metadata !{metadata !1240, metadata !1241}
!1240 = metadata !{i32 786480, null, metadata !"_SC_W2", metadata !156, i64 10, null, i32 0, i32 0} ; [ DW_TAG_template_value_parameter ]
!1241 = metadata !{i32 786480, null, metadata !"_SC_S2", metadata !158, i64 0, null, i32 0, i32 0} ; [ DW_TAG_template_value_parameter ]
!1242 = metadata !{i32 786478, i32 0, metadata !135, metadata !"sc_uint<false>", metadata !"sc_uint<false>", metadata !"", metadata !138, i32 287, metadata !1243, i1 false, i1 false, i32 0, i32 0, null, i32 256, i1 false, null, metadata !1245, i32 0, metadata !121, i32 287} ; [ DW_TAG_subprogram ]
!1243 = metadata !{i32 786453, i32 0, metadata !"", i32 0, i32 0, i64 0, i64 0, i64 0, i32 0, null, metadata !1244, i32 0, i32 0} ; [ DW_TAG_subroutine_type ]
!1244 = metadata !{null, metadata !1224, metadata !257}
!1245 = metadata !{metadata !1241}
!1246 = metadata !{i32 786478, i32 0, metadata !135, metadata !"sc_uint<10>", metadata !"sc_uint<10>", metadata !"", metadata !138, i32 309, metadata !1247, i1 false, i1 false, i32 0, i32 0, null, i32 256, i1 false, null, metadata !1251, i32 0, metadata !121, i32 309} ; [ DW_TAG_subprogram ]
!1247 = metadata !{i32 786453, i32 0, metadata !"", i32 0, i32 0, i64 0, i64 0, i64 0, i32 0, null, metadata !1248, i32 0, i32 0} ; [ DW_TAG_subroutine_type ]
!1248 = metadata !{null, metadata !1224, metadata !1249}
!1249 = metadata !{i32 786448, null, null, null, i32 0, i64 0, i64 0, i64 0, i32 0, metadata !1250} ; [ DW_TAG_reference_type ]
!1250 = metadata !{i32 786470, null, metadata !"", null, i32 0, i64 0, i64 0, i64 0, i32 0, metadata !135} ; [ DW_TAG_const_type ]
!1251 = metadata !{metadata !1240}
!1252 = metadata !{i32 786478, i32 0, metadata !135, metadata !"sc_uint", metadata !"sc_uint", metadata !"", metadata !138, i32 338, metadata !1253, i1 false, i1 false, i32 0, i32 0, null, i32 256, i1 false, null, null, i32 0, metadata !121, i32 338} ; [ DW_TAG_subprogram ]
